(imatplotlib.font_manager
FontManager
p1
(dp2
S'afm_lookup_cache'
p3
(dp4
sS'ttflist'
p5
(lp6
ccopy_reg
_reconstructor
p7
(cmatplotlib.font_manager
FontEntry
p8
c__builtin__
object
p9
NtRp10
(dp11
S'style'
p12
S'normal'
p13
sS'name'
p14
S'cmex10'
p15
sS'weight'
p16
I400
sS'stretch'
p17
g13
sS'variant'
p18
g13
sS'fname'
p19
S'/System/Library/Frameworks/Python.framework/Versions/2.7/Extras/lib/python/matplotlib/mpl-data/fonts/ttf/cmex10.ttf'
p20
sS'size'
p21
S'scalable'
p22
sbag7
(g8
g9
NtRp23
(dp24
g12
S'oblique'
p25
sg14
S'Bitstream Vera Sans'
p26
sg16
I700
sg17
g13
sg18
g13
sg19
S'/System/Library/Frameworks/Python.framework/Versions/2.7/Extras/lib/python/matplotlib/mpl-data/fonts/ttf/VeraBI.ttf'
p27
sg21
g22
sbag7
(g8
g9
NtRp28
(dp29
g12
g13
sg14
S'STIXNonUnicode'
p30
sg16
I400
sg17
g13
sg18
g13
sg19
S'/System/Library/Frameworks/Python.framework/Versions/2.7/Extras/lib/python/matplotlib/mpl-data/fonts/ttf/STIXNonUni.ttf'
p31
sg21
g22
sbag7
(g8
g9
NtRp32
(dp33
g12
g13
sg14
S'STIXNonUnicode'
p34
sg16
I700
sg17
g13
sg18
g13
sg19
S'/System/Library/Frameworks/Python.framework/Versions/2.7/Extras/lib/python/matplotlib/mpl-data/fonts/ttf/STIXNonUniBol.ttf'
p35
sg21
g22
sbag7
(g8
g9
NtRp36
(dp37
g12
g13
sg14
S'Bitstream Vera Sans Mono'
p38
sg16
I700
sg17
g13
sg18
g13
sg19
S'/System/Library/Frameworks/Python.framework/Versions/2.7/Extras/lib/python/matplotlib/mpl-data/fonts/ttf/VeraMoBd.ttf'
p39
sg21
g22
sbag7
(g8
g9
NtRp40
(dp41
g12
g13
sg14
S'cmr10'
p42
sg16
I400
sg17
g13
sg18
g13
sg19
S'/System/Library/Frameworks/Python.framework/Versions/2.7/Extras/lib/python/matplotlib/mpl-data/fonts/ttf/cmr10.ttf'
p43
sg21
g22
sbag7
(g8
g9
NtRp44
(dp45
g12
g13
sg14
S'STIXGeneral'
p46
sg16
I400
sg17
g13
sg18
g13
sg19
S'/System/Library/Frameworks/Python.framework/Versions/2.7/Extras/lib/python/matplotlib/mpl-data/fonts/ttf/STIXGeneral.ttf'
p47
sg21
g22
sbag7
(g8
g9
NtRp48
(dp49
g12
g25
sg14
S'Bitstream Vera Sans Mono'
p50
sg16
I400
sg17
g13
sg18
g13
sg19
S'/System/Library/Frameworks/Python.framework/Versions/2.7/Extras/lib/python/matplotlib/mpl-data/fonts/ttf/VeraMoIt.ttf'
p51
sg21
g22
sbag7
(g8
g9
NtRp52
(dp53
g12
g13
sg14
S'Bitstream Vera Serif'
p54
sg16
I400
sg17
g13
sg18
g13
sg19
S'/System/Library/Frameworks/Python.framework/Versions/2.7/Extras/lib/python/matplotlib/mpl-data/fonts/ttf/VeraSe.ttf'
p55
sg21
g22
sbag7
(g8
g9
NtRp56
(dp57
g12
g13
sg14
S'STIXSizeFiveSym'
p58
sg16
I400
sg17
g13
sg18
g13
sg19
S'/System/Library/Frameworks/Python.framework/Versions/2.7/Extras/lib/python/matplotlib/mpl-data/fonts/ttf/STIXSizFiveSymReg.ttf'
p59
sg21
g22
sbag7
(g8
g9
NtRp60
(dp61
g12
g13
sg14
S'Bitstream Vera Sans Mono'
p62
sg16
I400
sg17
g13
sg18
g13
sg19
S'/System/Library/Frameworks/Python.framework/Versions/2.7/Extras/lib/python/matplotlib/mpl-data/fonts/ttf/VeraMono.ttf'
p63
sg21
g22
sbag7
(g8
g9
NtRp64
(dp65
g12
g25
sg14
S'Bitstream Vera Sans Mono'
p66
sg16
I700
sg17
g13
sg18
g13
sg19
S'/System/Library/Frameworks/Python.framework/Versions/2.7/Extras/lib/python/matplotlib/mpl-data/fonts/ttf/VeraMoBI.ttf'
p67
sg21
g22
sbag7
(g8
g9
NtRp68
(dp69
g12
g13
sg14
S'STIXGeneral'
p70
sg16
I700
sg17
g13
sg18
g13
sg19
S'/System/Library/Frameworks/Python.framework/Versions/2.7/Extras/lib/python/matplotlib/mpl-data/fonts/ttf/STIXGeneralBol.ttf'
p71
sg21
g22
sbag7
(g8
g9
NtRp72
(dp73
g12
S'italic'
p74
sg14
S'STIXGeneral'
p75
sg16
I400
sg17
g13
sg18
g13
sg19
S'/System/Library/Frameworks/Python.framework/Versions/2.7/Extras/lib/python/matplotlib/mpl-data/fonts/ttf/STIXGeneralItalic.ttf'
p76
sg21
g22
sbag7
(g8
g9
NtRp77
(dp78
g12
g13
sg14
S'STIXSizeFourSym'
p79
sg16
I400
sg17
g13
sg18
g13
sg19
S'/System/Library/Frameworks/Python.framework/Versions/2.7/Extras/lib/python/matplotlib/mpl-data/fonts/ttf/STIXSizFourSymReg.ttf'
p80
sg21
g22
sbag7
(g8
g9
NtRp81
(dp82
g12
g13
sg14
S'STIXSizeThreeSym'
p83
sg16
I700
sg17
g13
sg18
g13
sg19
S'/System/Library/Frameworks/Python.framework/Versions/2.7/Extras/lib/python/matplotlib/mpl-data/fonts/ttf/STIXSizThreeSymBol.ttf'
p84
sg21
g22
sbag7
(g8
g9
NtRp85
(dp86
g12
g13
sg14
S'STIXSizeOneSym'
p87
sg16
I700
sg17
g13
sg18
g13
sg19
S'/System/Library/Frameworks/Python.framework/Versions/2.7/Extras/lib/python/matplotlib/mpl-data/fonts/ttf/STIXSizOneSymBol.ttf'
p88
sg21
g22
sbag7
(g8
g9
NtRp89
(dp90
g12
g13
sg14
S'STIXSizeFourSym'
p91
sg16
I700
sg17
g13
sg18
g13
sg19
S'/System/Library/Frameworks/Python.framework/Versions/2.7/Extras/lib/python/matplotlib/mpl-data/fonts/ttf/STIXSizFourSymBol.ttf'
p92
sg21
g22
sbag7
(g8
g9
NtRp93
(dp94
g12
g13
sg14
S'Bitstream Vera Sans'
p95
sg16
I700
sg17
g13
sg18
g13
sg19
S'/System/Library/Frameworks/Python.framework/Versions/2.7/Extras/lib/python/matplotlib/mpl-data/fonts/ttf/VeraBd.ttf'
p96
sg21
g22
sbag7
(g8
g9
NtRp97
(dp98
g12
g13
sg14
S'cmsy10'
p99
sg16
I400
sg17
g13
sg18
g13
sg19
S'/System/Library/Frameworks/Python.framework/Versions/2.7/Extras/lib/python/matplotlib/mpl-data/fonts/ttf/cmsy10.ttf'
p100
sg21
g22
sbag7
(g8
g9
NtRp101
(dp102
g12
g13
sg14
S'STIXSizeTwoSym'
p103
sg16
I400
sg17
g13
sg18
g13
sg19
S'/System/Library/Frameworks/Python.framework/Versions/2.7/Extras/lib/python/matplotlib/mpl-data/fonts/ttf/STIXSizTwoSymReg.ttf'
p104
sg21
g22
sbag7
(g8
g9
NtRp105
(dp106
g12
g74
sg14
S'STIXNonUnicode'
p107
sg16
I700
sg17
g13
sg18
g13
sg19
S'/System/Library/Frameworks/Python.framework/Versions/2.7/Extras/lib/python/matplotlib/mpl-data/fonts/ttf/STIXNonUniBolIta.ttf'
p108
sg21
g22
sbag7
(g8
g9
NtRp109
(dp110
g12
g13
sg14
S'cmb10'
p111
sg16
I400
sg17
g13
sg18
g13
sg19
S'/System/Library/Frameworks/Python.framework/Versions/2.7/Extras/lib/python/matplotlib/mpl-data/fonts/ttf/cmb10.ttf'
p112
sg21
g22
sbag7
(g8
g9
NtRp113
(dp114
g12
g13
sg14
S'cmmi10'
p115
sg16
I400
sg17
g13
sg18
g13
sg19
S'/System/Library/Frameworks/Python.framework/Versions/2.7/Extras/lib/python/matplotlib/mpl-data/fonts/ttf/cmmi10.ttf'
p116
sg21
g22
sbag7
(g8
g9
NtRp117
(dp118
g12
g25
sg14
S'Bitstream Vera Sans'
p119
sg16
I400
sg17
g13
sg18
g13
sg19
S'/System/Library/Frameworks/Python.framework/Versions/2.7/Extras/lib/python/matplotlib/mpl-data/fonts/ttf/VeraIt.ttf'
p120
sg21
g22
sbag7
(g8
g9
NtRp121
(dp122
g12
g13
sg14
S'STIXSizeOneSym'
p123
sg16
I400
sg17
g13
sg18
g13
sg19
S'/System/Library/Frameworks/Python.framework/Versions/2.7/Extras/lib/python/matplotlib/mpl-data/fonts/ttf/STIXSizOneSymReg.ttf'
p124
sg21
g22
sbag7
(g8
g9
NtRp125
(dp126
g12
g13
sg14
S'Bitstream Vera Sans'
p127
sg16
I400
sg17
g13
sg18
g13
sg19
S'/System/Library/Frameworks/Python.framework/Versions/2.7/Extras/lib/python/matplotlib/mpl-data/fonts/ttf/Vera.ttf'
p128
sg21
g22
sbag7
(g8
g9
NtRp129
(dp130
g12
g13
sg14
S'cmss10'
p131
sg16
I400
sg17
g13
sg18
g13
sg19
S'/System/Library/Frameworks/Python.framework/Versions/2.7/Extras/lib/python/matplotlib/mpl-data/fonts/ttf/cmss10.ttf'
p132
sg21
g22
sbag7
(g8
g9
NtRp133
(dp134
g12
g13
sg14
S'Bitstream Vera Serif'
p135
sg16
I700
sg17
g13
sg18
g13
sg19
S'/System/Library/Frameworks/Python.framework/Versions/2.7/Extras/lib/python/matplotlib/mpl-data/fonts/ttf/VeraSeBd.ttf'
p136
sg21
g22
sbag7
(g8
g9
NtRp137
(dp138
g12
g13
sg14
S'STIXSizeTwoSym'
p139
sg16
I700
sg17
g13
sg18
g13
sg19
S'/System/Library/Frameworks/Python.framework/Versions/2.7/Extras/lib/python/matplotlib/mpl-data/fonts/ttf/STIXSizTwoSymBol.ttf'
p140
sg21
g22
sbag7
(g8
g9
NtRp141
(dp142
g12
g74
sg14
S'STIXNonUnicode'
p143
sg16
I400
sg17
g13
sg18
g13
sg19
S'/System/Library/Frameworks/Python.framework/Versions/2.7/Extras/lib/python/matplotlib/mpl-data/fonts/ttf/STIXNonUniIta.ttf'
p144
sg21
g22
sbag7
(g8
g9
NtRp145
(dp146
g12
g13
sg14
S'cmtt10'
p147
sg16
I400
sg17
g13
sg18
g13
sg19
S'/System/Library/Frameworks/Python.framework/Versions/2.7/Extras/lib/python/matplotlib/mpl-data/fonts/ttf/cmtt10.ttf'
p148
sg21
g22
sbag7
(g8
g9
NtRp149
(dp150
g12
g74
sg14
S'STIXGeneral'
p151
sg16
I700
sg17
g13
sg18
g13
sg19
S'/System/Library/Frameworks/Python.framework/Versions/2.7/Extras/lib/python/matplotlib/mpl-data/fonts/ttf/STIXGeneralBolIta.ttf'
p152
sg21
g22
sbag7
(g8
g9
NtRp153
(dp154
g12
g13
sg14
S'STIXSizeThreeSym'
p155
sg16
I400
sg17
g13
sg18
g13
sg19
S'/System/Library/Frameworks/Python.framework/Versions/2.7/Extras/lib/python/matplotlib/mpl-data/fonts/ttf/STIXSizThreeSymReg.ttf'
p156
sg21
g22
sbag7
(g8
g9
NtRp157
(dp158
g12
g13
sg14
S'.SF NS Display Condensed'
p159
sg16
I400
sg17
g13
sg18
g13
sg19
S'/System/Library/Fonts/SFNSDisplayCondensed-Regular.otf'
p160
sg21
g22
sbag7
(g8
g9
NtRp161
(dp162
g12
g74
sg14
S'Trebuchet MS'
p163
sg16
I400
sg17
g13
sg18
g13
sg19
S'/Library/Fonts/Trebuchet MS Italic.ttf'
p164
sg21
g22
sbag7
(g8
g9
NtRp165
(dp166
g12
g13
sg14
S'Hoefler Text'
p167
sg16
I400
sg17
g13
sg18
g13
sg19
S'/Library/Fonts/Hoefler Text Ornaments.ttf'
p168
sg21
g22
sbag7
(g8
g9
NtRp169
(dp170
g12
g13
sg14
S'.SF Compact Rounded'
p171
sg16
I400
sg17
g13
sg18
g13
sg19
S'/System/Library/Fonts/SFCompactRounded-Heavy.otf'
p172
sg21
g22
sbag7
(g8
g9
NtRp173
(dp174
g12
g13
sg14
S'Times New Roman'
p175
sg16
I500
sg17
g13
sg18
g13
sg19
S'/Library/Fonts/Times New Roman.ttf'
p176
sg21
g22
sbag7
(g8
g9
NtRp177
(dp178
g12
g13
sg14
S'.SF Compact Display'
p179
sg16
I400
sg17
g13
sg18
g13
sg19
S'/System/Library/Fonts/SFCompactDisplay-Medium.otf'
p180
sg21
g22
sbag7
(g8
g9
NtRp181
(dp182
g12
g25
sg14
S'Luxi Mono'
p183
sg16
I400
sg17
g13
sg18
g13
sg19
S'/usr/X11/lib/X11/fonts/TTF/luximri.ttf'
p184
sg21
g22
sbag7
(g8
g9
NtRp185
(dp186
g12
g13
sg14
S'Verdana'
p187
sg16
I700
sg17
g13
sg18
g13
sg19
S'/Library/Fonts/Verdana Bold.ttf'
p188
sg21
g22
sbag7
(g8
g9
NtRp189
(dp190
g12
g13
sg14
S'.SF Compact Rounded'
p191
sg16
I400
sg17
g13
sg18
g13
sg19
S'/System/Library/Fonts/SFCompactRounded-Medium.otf'
p192
sg21
g22
sbag7
(g8
g9
NtRp193
(dp194
g12
g13
sg14
S'Serto Batnan'
p195
sg16
I700
sg17
g13
sg18
g13
sg19
S'/usr/X11/lib/X11/fonts/OTF/SyrCOMBatnanBold.otf'
p196
sg21
g22
sbag7
(g8
g9
NtRp197
(dp198
g12
g13
sg14
S'Arial Unicode MS'
p199
sg16
I400
sg17
g13
sg18
g13
sg19
S'/Library/Fonts/Arial Unicode.ttf'
p200
sg21
g22
sbag7
(g8
g9
NtRp201
(dp202
g12
g13
sg14
S'STIXSizeThreeSym'
p203
sg16
I400
sg17
g13
sg18
g13
sg19
S'/Library/Fonts/STIXSizThreeSymReg.otf'
p204
sg21
g22
sbag7
(g8
g9
NtRp205
(dp206
g12
g13
sg14
S'DIN Condensed'
p207
sg16
I700
sg17
S'condensed'
p208
sg18
g13
sg19
S'/Library/Fonts/DIN Condensed Bold.ttf'
p209
sg21
g22
sbag7
(g8
g9
NtRp210
(dp211
g12
g25
sg14
S'Luxi Serif'
p212
sg16
I400
sg17
g13
sg18
g13
sg19
S'/usr/X11R6/lib/X11/fonts/TTF/luxirri.ttf'
p213
sg21
g22
sbag7
(g8
g9
NtRp214
(dp215
g12
g13
sg14
S'System Font'
p216
sg16
I400
sg17
g13
sg18
g13
sg19
S'/System/Library/Fonts/SFNSDisplay-BoldItalic.otf'
p217
sg21
g22
sbag7
(g8
g9
NtRp218
(dp219
g12
g13
sg14
S'Estrangelo Talada'
p220
sg16
I400
sg17
g13
sg18
g13
sg19
S'/usr/X11/lib/X11/fonts/OTF/SyrCOMTalada.otf'
p221
sg21
g22
sbag7
(g8
g9
NtRp222
(dp223
g12
g13
sg14
S'Luxi Mono'
p224
sg16
I400
sg17
g13
sg18
g13
sg19
S'/usr/X11/lib/X11/fonts/TTF/luximr.ttf'
p225
sg21
g22
sbag7
(g8
g9
NtRp226
(dp227
g12
g13
sg14
S'Herculanum'
p228
sg16
I400
sg17
g13
sg18
g13
sg19
S'/Library/Fonts/Herculanum.ttf'
p229
sg21
g22
sbag7
(g8
g9
NtRp230
(dp231
g12
g13
sg14
S'Arial'
p232
sg16
I400
sg17
g13
sg18
g13
sg19
S'/Library/Fonts/Arial.ttf'
p233
sg21
g22
sbag7
(g8
g9
NtRp234
(dp235
g12
g13
sg14
S'.SF Compact Display'
p236
sg16
I400
sg17
g13
sg18
g13
sg19
S'/System/Library/Fonts/SFCompactDisplay-Semibold.otf'
p237
sg21
g22
sbag7
(g8
g9
NtRp238
(dp239
g12
g13
sg14
S'AppleGothic'
p240
sg16
I400
sg17
g13
sg18
g13
sg19
S'/Library/Fonts/AppleGothic.ttf'
p241
sg21
g22
sbag7
(g8
g9
NtRp242
(dp243
g12
g13
sg14
S'.SF NS Text Condensed'
p244
sg16
I400
sg17
g13
sg18
g13
sg19
S'/System/Library/Fonts/SFNSTextCondensed-Bold.otf'
p245
sg21
g22
sbag7
(g8
g9
NtRp246
(dp247
g12
g13
sg14
S'Arial Narrow'
p248
sg16
I400
sg17
g208
sg18
g13
sg19
S'/Library/Fonts/Arial Narrow.ttf'
p249
sg21
g22
sbag7
(g8
g9
NtRp250
(dp251
g12
g13
sg14
S'.SF NS Display Condensed'
p252
sg16
I400
sg17
g13
sg18
g13
sg19
S'/System/Library/Fonts/SFNSDisplayCondensed-Bold.otf'
p253
sg21
g22
sbag7
(g8
g9
NtRp254
(dp255
g12
g13
sg14
S'Luxi Mono'
p256
sg16
I700
sg17
g13
sg18
g13
sg19
S'/usr/X11/lib/X11/fonts/TTF/luximb.ttf'
p257
sg21
g22
sbag7
(g8
g9
NtRp258
(dp259
g12
g13
sg14
S'Serto Mardin'
p260
sg16
I700
sg17
g13
sg18
g13
sg19
S'/usr/X11/lib/X11/fonts/OTF/SyrCOMMardinBold.otf'
p261
sg21
g22
sbag7
(g8
g9
NtRp262
(dp263
g12
g13
sg14
S'.SF Compact Rounded'
p264
sg16
I400
sg17
g13
sg18
g13
sg19
S'/System/Library/Fonts/SFCompactRounded-Ultralight.otf'
p265
sg21
g22
sbag7
(g8
g9
NtRp266
(dp267
g12
g13
sg14
S'.SF NS Display Condensed'
p268
sg16
I400
sg17
g13
sg18
g13
sg19
S'/System/Library/Fonts/SFNSDisplayCondensed-Semibold.otf'
p269
sg21
g22
sbag7
(g8
g9
NtRp270
(dp271
g12
g13
sg14
S'AppleMyungjo'
p272
sg16
I400
sg17
g13
sg18
g13
sg19
S'/Library/Fonts/AppleMyungjo.ttf'
p273
sg21
g22
sbag7
(g8
g9
NtRp274
(dp275
g12
g13
sg14
S'Mishafi Gold'
p276
sg16
I400
sg17
g13
sg18
g13
sg19
S'/Library/Fonts/Mishafi Gold.ttf'
p277
sg21
g22
sbag7
(g8
g9
NtRp278
(dp279
g12
g25
sg14
S'Luxi Sans'
p280
sg16
I400
sg17
g13
sg18
g13
sg19
S'/usr/X11/lib/X11/fonts/TTF/luxisri.ttf'
p281
sg21
g22
sbag7
(g8
g9
NtRp282
(dp283
g12
g13
sg14
S'Zapf Dingbats'
p284
sg16
I400
sg17
g13
sg18
g13
sg19
S'/System/Library/Fonts/ZapfDingbats.ttf'
p285
sg21
g22
sbag7
(g8
g9
NtRp286
(dp287
g12
g13
sg14
S'.SF Compact Rounded'
p288
sg16
I400
sg17
g13
sg18
g13
sg19
S'/System/Library/Fonts/SFCompactRounded-Semibold.otf'
p289
sg21
g22
sbag7
(g8
g9
NtRp290
(dp291
g12
g13
sg14
S'.SF Compact Text'
p292
sg16
I400
sg17
g13
sg18
g13
sg19
S'/System/Library/Fonts/SFCompactText-BoldItalic.otf'
p293
sg21
g22
sbag7
(g8
g9
NtRp294
(dp295
g12
g13
sg14
S'STIXIntegralsD'
p296
sg16
I700
sg17
g13
sg18
g13
sg19
S'/Library/Fonts/STIXIntDBol.otf'
p297
sg21
g22
sbag7
(g8
g9
NtRp298
(dp299
g12
g13
sg14
S'System Font'
p300
sg16
I400
sg17
g13
sg18
g13
sg19
S'/System/Library/Fonts/SFNSTextItalic.ttf'
p301
sg21
g22
sbag7
(g8
g9
NtRp302
(dp303
g12
g13
sg14
S'DIN Alternate'
p304
sg16
I700
sg17
g13
sg18
g13
sg19
S'/Library/Fonts/DIN Alternate Bold.ttf'
p305
sg21
g22
sbag7
(g8
g9
NtRp306
(dp307
g12
g13
sg14
S'.SF Compact Display'
p308
sg16
I400
sg17
g13
sg18
g13
sg19
S'/System/Library/Fonts/SFCompactDisplay-Bold.otf'
p309
sg21
g22
sbag7
(g8
g9
NtRp310
(dp311
g12
g13
sg14
S'STIXSizeThreeSym'
p312
sg16
I700
sg17
g13
sg18
g13
sg19
S'/Library/Fonts/STIXSizThreeSymBol.otf'
p313
sg21
g22
sbag7
(g8
g9
NtRp314
(dp315
g12
g13
sg14
S'System Font'
p316
sg16
I400
sg17
g13
sg18
g13
sg19
S'/System/Library/Fonts/SFNSDisplay.ttf'
p317
sg21
g22
sbag7
(g8
g9
NtRp318
(dp319
g12
g13
sg14
S'Courier New'
p320
sg16
I400
sg17
g13
sg18
g13
sg19
S'/Library/Fonts/Courier New.ttf'
p321
sg21
g22
sbag7
(g8
g9
NtRp322
(dp323
g12
g74
sg14
S'Arial Narrow'
p324
sg16
I700
sg17
g208
sg18
g13
sg19
S'/Library/Fonts/Arial Narrow Bold Italic.ttf'
p325
sg21
g22
sbag7
(g8
g9
NtRp326
(dp327
g12
g13
sg14
S'Serto Jerusalem'
p328
sg16
I400
sg17
g13
sg18
g13
sg19
S'/usr/X11/lib/X11/fonts/OTF/SyrCOMJerusalem.otf'
p329
sg21
g22
sbag7
(g8
g9
NtRp330
(dp331
g12
g13
sg14
S'Luminari'
p332
sg16
I400
sg17
g13
sg18
g13
sg19
S'/Library/Fonts/Luminari.ttf'
p333
sg21
g22
sbag7
(g8
g9
NtRp334
(dp335
g12
g13
sg14
S'Zapfino'
p336
sg16
I400
sg17
g13
sg18
g13
sg19
S'/Library/Fonts/Zapfino.ttf'
p337
sg21
g22
sbag7
(g8
g9
NtRp338
(dp339
g12
g13
sg14
S'Arial Narrow'
p340
sg16
I700
sg17
g208
sg18
g13
sg19
S'/Library/Fonts/Arial Narrow Bold.ttf'
p341
sg21
g22
sbag7
(g8
g9
NtRp342
(dp343
g12
g74
sg14
S'Times New Roman'
p344
sg16
I500
sg17
g13
sg18
g13
sg19
S'/Library/Fonts/Times New Roman Italic.ttf'
p345
sg21
g22
sbag7
(g8
g9
NtRp346
(dp347
g12
g13
sg14
S'.SF NS Text Condensed'
p348
sg16
I400
sg17
g13
sg18
g13
sg19
S'/System/Library/Fonts/SFNSTextCondensed-Medium.otf'
p349
sg21
g22
sbag7
(g8
g9
NtRp350
(dp351
g12
g13
sg14
S'Krungthep'
p352
sg16
I400
sg17
g13
sg18
g13
sg19
S'/Library/Fonts/Krungthep.ttf'
p353
sg21
g22
sbag7
(g8
g9
NtRp354
(dp355
g12
g13
sg14
S'.SF NS Display Condensed'
p356
sg16
I400
sg17
g13
sg18
g13
sg19
S'/System/Library/Fonts/SFNSDisplayCondensed-Light.otf'
p357
sg21
g22
sbag7
(g8
g9
NtRp358
(dp359
g12
g13
sg14
S'Apple Symbols'
p360
sg16
I400
sg17
g13
sg18
g13
sg19
S'/System/Library/Fonts/Apple Symbols.ttf'
p361
sg21
g22
sbag7
(g8
g9
NtRp362
(dp363
g12
g13
sg14
S'STIXSizeTwoSym'
p364
sg16
I700
sg17
g13
sg18
g13
sg19
S'/Library/Fonts/STIXSizTwoSymBol.otf'
p365
sg21
g22
sbag7
(g8
g9
NtRp366
(dp367
g12
g13
sg14
S'STIXIntegralsSm'
p368
sg16
I700
sg17
g13
sg18
g13
sg19
S'/Library/Fonts/STIXIntSmBol.otf'
p369
sg21
g22
sbag7
(g8
g9
NtRp370
(dp371
g12
g13
sg14
S'Diwan Thuluth'
p372
sg16
I400
sg17
g13
sg18
g13
sg19
S'/Library/Fonts/Diwan Thuluth.ttf'
p373
sg21
g22
sbag7
(g8
g9
NtRp374
(dp375
g12
g13
sg14
S'Trebuchet MS'
p376
sg16
I700
sg17
g13
sg18
g13
sg19
S'/Library/Fonts/Trebuchet MS Bold.ttf'
p377
sg21
g22
sbag7
(g8
g9
NtRp378
(dp379
g12
g13
sg14
S'East Syriac Adiabene'
p380
sg16
I400
sg17
g13
sg18
g13
sg19
S'/usr/X11/lib/X11/fonts/OTF/SyrCOMAdiabene.otf'
p381
sg21
g22
sbag7
(g8
g9
NtRp382
(dp383
g12
g13
sg14
S'.SF Compact Text'
p384
sg16
I400
sg17
g13
sg18
g13
sg19
S'/System/Library/Fonts/SFCompactText-HeavyItalic.otf'
p385
sg21
g22
sbag7
(g8
g9
NtRp386
(dp387
g12
g13
sg14
S'Bradley Hand'
p388
sg16
I700
sg17
g13
sg18
g13
sg19
S'/Library/Fonts/Bradley Hand Bold.ttf'
p389
sg21
g22
sbag7
(g8
g9
NtRp390
(dp391
g12
g13
sg14
S'Luxi Serif'
p392
sg16
I700
sg17
g13
sg18
g13
sg19
S'/usr/X11/lib/X11/fonts/TTF/luxirb.ttf'
p393
sg21
g22
sbag7
(g8
g9
NtRp394
(dp395
g12
g13
sg14
S'.SF Compact Rounded'
p396
sg16
I400
sg17
g13
sg18
g13
sg19
S'/System/Library/Fonts/SFCompactRounded-Thin.otf'
p397
sg21
g22
sbag7
(g8
g9
NtRp398
(dp399
g12
g13
sg14
S'System Font'
p400
sg16
I400
sg17
g13
sg18
g13
sg19
S'/System/Library/Fonts/SFNSDisplay-SemiboldItalic.otf'
p401
sg21
g22
sbag7
(g8
g9
NtRp402
(dp403
g12
g74
sg14
S'Times New Roman'
p404
sg16
I700
sg17
g13
sg18
g13
sg19
S'/Library/Fonts/Times New Roman Bold Italic.ttf'
p405
sg21
g22
sbag7
(g8
g9
NtRp406
(dp407
g12
g13
sg14
S'System Font'
p408
sg16
I400
sg17
g13
sg18
g13
sg19
S'/System/Library/Fonts/SFNSDisplay-RegularItalic.otf'
p409
sg21
g22
sbag7
(g8
g9
NtRp410
(dp411
g12
g74
sg14
S'Arial Narrow'
p412
sg16
I400
sg17
g208
sg18
g13
sg19
S'/Library/Fonts/Arial Narrow Italic.ttf'
p413
sg21
g22
sbag7
(g8
g9
NtRp414
(dp415
g12
g13
sg14
S'.SF Compact Rounded'
p416
sg16
I400
sg17
g13
sg18
g13
sg19
S'/System/Library/Fonts/SFCompactRounded-Light.otf'
p417
sg21
g22
sbag7
(g8
g9
NtRp418
(dp419
g12
g13
sg14
S'.SF Compact Display'
p420
sg16
I400
sg17
g13
sg18
g13
sg19
S'/System/Library/Fonts/SFCompactDisplay-Regular.otf'
p421
sg21
g22
sbag7
(g8
g9
NtRp422
(dp423
g12
g13
sg14
S'East Syriac Ctesiphon'
p424
sg16
I400
sg17
g13
sg18
g13
sg19
S'/usr/X11/lib/X11/fonts/OTF/SyrCOMCtesiphon.otf'
p425
sg21
g22
sbag7
(g8
g9
NtRp426
(dp427
g12
g13
sg14
S'.SF NS Display Condensed'
p428
sg16
I400
sg17
g13
sg18
g13
sg19
S'/System/Library/Fonts/SFNSDisplayCondensed-Ultralight.otf'
p429
sg21
g22
sbag7
(g8
g9
NtRp430
(dp431
g12
g13
sg14
S'System Font'
p432
sg16
I400
sg17
g13
sg18
g13
sg19
S'/System/Library/Fonts/SFNSDisplay-MediumItalic.otf'
p433
sg21
g22
sbag7
(g8
g9
NtRp434
(dp435
g12
g13
sg14
S'Estrangelo Midyat'
p436
sg16
I400
sg17
g13
sg18
g13
sg19
S'/usr/X11/lib/X11/fonts/OTF/SyrCOMMidyat.otf'
p437
sg21
g22
sbag7
(g8
g9
NtRp438
(dp439
g12
g13
sg14
S'Apple Braille'
p440
sg16
I400
sg17
g13
sg18
g13
sg19
S'/System/Library/Fonts/Apple Braille Outline 8 Dot.ttf'
p441
sg21
g22
sbag7
(g8
g9
NtRp442
(dp443
g12
g13
sg14
S'.SF NS Text Condensed'
p444
sg16
I400
sg17
g13
sg18
g13
sg19
S'/System/Library/Fonts/SFNSTextCondensed-Heavy.otf'
p445
sg21
g22
sbag7
(g8
g9
NtRp446
(dp447
g12
g13
sg14
S'Estrangelo Quenneshrin'
p448
sg16
I400
sg17
g13
sg18
g13
sg19
S'/usr/X11/lib/X11/fonts/OTF/SyrCOMQenNeshrin.otf'
p449
sg21
g22
sbag7
(g8
g9
NtRp450
(dp451
g12
g13
sg14
S'Plantagenet Cherokee'
p452
sg16
I400
sg17
g13
sg18
g13
sg19
S'/Library/Fonts/PlantagenetCherokee.ttf'
p453
sg21
g22
sbag7
(g8
g9
NtRp454
(dp455
g12
g13
sg14
S'Estrangelo TurAbdin'
p456
sg16
I400
sg17
g13
sg18
g13
sg19
S'/usr/X11/lib/X11/fonts/OTF/SyrCOMTurAbdin.otf'
p457
sg21
g22
sbag7
(g8
g9
NtRp458
(dp459
g12
g13
sg14
S'Times New Roman'
p460
sg16
I700
sg17
g13
sg18
g13
sg19
S'/Library/Fonts/Times New Roman Bold.ttf'
p461
sg21
g22
sbag7
(g8
g9
NtRp462
(dp463
g12
g25
sg14
S'Luxi Sans'
p464
sg16
I700
sg17
g13
sg18
g13
sg19
S'/usr/X11/lib/X11/fonts/TTF/luxisbi.ttf'
p465
sg21
g22
sbag7
(g8
g9
NtRp466
(dp467
g12
g74
sg14
S'Arial'
p468
sg16
I700
sg17
g13
sg18
g13
sg19
S'/Library/Fonts/Arial Bold Italic.ttf'
p469
sg21
g22
sbag7
(g8
g9
NtRp470
(dp471
g12
g13
sg14
S'Goha-Tibeb Zemen'
p472
sg16
I400
sg17
g13
sg18
g13
sg19
S'/usr/X11/lib/X11/fonts/TTF/GohaTibebZemen.ttf'
p473
sg21
g22
sbag7
(g8
g9
NtRp474
(dp475
g12
g13
sg14
S'.SF NS Text Condensed'
p476
sg16
I400
sg17
g13
sg18
g13
sg19
S'/System/Library/Fonts/SFNSTextCondensed-Regular.otf'
p477
sg21
g22
sbag7
(g8
g9
NtRp478
(dp479
g12
g13
sg14
S'STIXVariants'
p480
sg16
I400
sg17
g13
sg18
g13
sg19
S'/Library/Fonts/STIXVar.otf'
p481
sg21
g22
sbag7
(g8
g9
NtRp482
(dp483
g12
g13
sg14
S'Mishafi'
p484
sg16
I400
sg17
g13
sg18
g13
sg19
S'/Library/Fonts/Mishafi.ttf'
p485
sg21
g22
sbag7
(g8
g9
NtRp486
(dp487
g12
g13
sg14
S'STIXVariants'
p488
sg16
I700
sg17
g13
sg18
g13
sg19
S'/Library/Fonts/STIXVarBol.otf'
p489
sg21
g22
sbag7
(g8
g9
NtRp490
(dp491
g12
g13
sg14
S'Georgia'
p492
sg16
I400
sg17
g13
sg18
g13
sg19
S'/Library/Fonts/Georgia.ttf'
p493
sg21
g22
sbag7
(g8
g9
NtRp494
(dp495
g12
g13
sg14
S'System Font'
p496
sg16
I400
sg17
g13
sg18
g13
sg19
S'/System/Library/Fonts/SFNSDisplay-BlackItalic.otf'
p497
sg21
g22
sbag7
(g8
g9
NtRp498
(dp499
g12
g13
sg14
S'.SF Compact Text'
p500
sg16
I400
sg17
g13
sg18
g13
sg19
S'/System/Library/Fonts/SFCompactText-Regular.otf'
p501
sg21
g22
sbag7
(g8
g9
NtRp502
(dp503
g12
g13
sg14
S'.SF Compact Text'
p504
sg16
I400
sg17
g13
sg18
g13
sg19
S'/System/Library/Fonts/SFCompactText-Semibold.otf'
p505
sg21
g22
sbag7
(g8
g9
NtRp506
(dp507
g12
g13
sg14
S'.LastResort'
p508
sg16
I400
sg17
g13
sg18
g13
sg19
S'/System/Library/Fonts/LastResort.otf'
p509
sg21
g22
sbag7
(g8
g9
NtRp510
(dp511
g12
g13
sg14
S'STIXIntegralsUp'
p512
sg16
I700
sg17
g13
sg18
g13
sg19
S'/Library/Fonts/STIXIntUpBol.otf'
p513
sg21
g22
sbag7
(g8
g9
NtRp514
(dp515
g12
g13
sg14
S'.SF Compact Text'
p516
sg16
I400
sg17
g13
sg18
g13
sg19
S'/System/Library/Fonts/SFCompactText-Bold.otf'
p517
sg21
g22
sbag7
(g8
g9
NtRp518
(dp519
g12
g13
sg14
S'Skia'
p520
sg16
I400
sg17
g13
sg18
g13
sg19
S'/Library/Fonts/Skia.ttf'
p521
sg21
g22
sbag7
(g8
g9
NtRp522
(dp523
g12
g13
sg14
S'STIXSizeFiveSym'
p524
sg16
I400
sg17
g13
sg18
g13
sg19
S'/Library/Fonts/STIXSizFiveSymReg.otf'
p525
sg21
g22
sbag7
(g8
g9
NtRp526
(dp527
g12
g13
sg14
S'Verdana'
p528
sg16
I400
sg17
g13
sg18
g13
sg19
S'/Library/Fonts/Verdana.ttf'
p529
sg21
g22
sbag7
(g8
g9
NtRp530
(dp531
g12
g13
sg14
S'Farisi'
p532
sg16
I400
sg17
g13
sg18
g13
sg19
S'/Library/Fonts/Farisi.ttf'
p533
sg21
g22
sbag7
(g8
g9
NtRp534
(dp535
g12
g13
sg14
S'System Font'
p536
sg16
I400
sg17
g13
sg18
g13
sg19
S'/System/Library/Fonts/SFNSText.ttf'
p537
sg21
g22
sbag7
(g8
g9
NtRp538
(dp539
g12
g13
sg14
S'Luxi Sans'
p540
sg16
I700
sg17
g13
sg18
g13
sg19
S'/usr/X11/lib/X11/fonts/TTF/luxisb.ttf'
p541
sg21
g22
sbag7
(g8
g9
NtRp542
(dp543
g12
g13
sg14
S'.SF Compact Display'
p544
sg16
I400
sg17
g13
sg18
g13
sg19
S'/System/Library/Fonts/SFCompactDisplay-Light.otf'
p545
sg21
g22
sbag7
(g8
g9
NtRp546
(dp547
g12
g13
sg14
S'STIXNonUnicode'
p548
sg16
I400
sg17
g13
sg18
g13
sg19
S'/Library/Fonts/STIXNonUni.otf'
p549
sg21
g22
sbag7
(g8
g9
NtRp550
(dp551
g12
g13
sg14
S'Bodoni 72 Smallcaps'
p552
sg16
I400
sg17
g13
sg18
g13
sg19
S'/Library/Fonts/Bodoni 72 Smallcaps Book.ttf'
p553
sg21
g22
sbag7
(g8
g9
NtRp554
(dp555
g12
g25
sg14
S'Luxi Serif'
p556
sg16
I700
sg17
g13
sg18
g13
sg19
S'/usr/X11/lib/X11/fonts/TTF/luxirbi.ttf'
p557
sg21
g22
sbag7
(g8
g9
NtRp558
(dp559
g12
g13
sg14
S'Luxi Sans'
p560
sg16
I400
sg17
g13
sg18
g13
sg19
S'/usr/X11/lib/X11/fonts/TTF/luxisr.ttf'
p561
sg21
g22
sbag7
(g8
g9
NtRp562
(dp563
g12
g74
sg14
S'Arial'
p564
sg16
I400
sg17
g13
sg18
g13
sg19
S'/Library/Fonts/Arial Italic.ttf'
p565
sg21
g22
sbag7
(g8
g9
NtRp566
(dp567
g12
g74
sg14
S'STIXNonUnicode'
p568
sg16
I700
sg17
g13
sg18
g13
sg19
S'/Library/Fonts/STIXNonUniBolIta.otf'
p569
sg21
g22
sbag7
(g8
g9
NtRp570
(dp571
g12
g13
sg14
S'Apple Braille'
p572
sg16
I400
sg17
g13
sg18
g13
sg19
S'/System/Library/Fonts/Apple Braille Pinpoint 8 Dot.ttf'
p573
sg21
g22
sbag7
(g8
g9
NtRp574
(dp575
g12
g74
sg14
S'Georgia'
p576
sg16
I400
sg17
g13
sg18
g13
sg19
S'/Library/Fonts/Georgia Italic.ttf'
p577
sg21
g22
sbag7
(g8
g9
NtRp578
(dp579
g12
g13
sg14
S'Apple Braille'
p580
sg16
I400
sg17
g13
sg18
g13
sg19
S'/System/Library/Fonts/Apple Braille Outline 6 Dot.ttf'
p581
sg21
g22
sbag7
(g8
g9
NtRp582
(dp583
g12
g74
sg14
S'Courier New'
p584
sg16
I700
sg17
g13
sg18
g13
sg19
S'/Library/Fonts/Courier New Bold Italic.ttf'
p585
sg21
g22
sbag7
(g8
g9
NtRp586
(dp587
g12
g13
sg14
S'Serto Kharput'
p588
sg16
I400
sg17
g13
sg18
g13
sg19
S'/usr/X11/lib/X11/fonts/OTF/SyrCOMKharput.otf'
p589
sg21
g22
sbag7
(g8
g9
NtRp590
(dp591
g12
g13
sg14
S'Arial Rounded MT Bold'
p592
sg16
I700
sg17
g13
sg18
g13
sg19
S'/Library/Fonts/Arial Rounded Bold.ttf'
p593
sg21
g22
sbag7
(g8
g9
NtRp594
(dp595
g12
g13
sg14
S'.SF NS Display Condensed'
p596
sg16
I400
sg17
g13
sg18
g13
sg19
S'/System/Library/Fonts/SFNSDisplayCondensed-Thin.otf'
p597
sg21
g22
sbag7
(g8
g9
NtRp598
(dp599
g12
g13
sg14
S'.SF NS Display Condensed'
p600
sg16
I400
sg17
g13
sg18
g13
sg19
S'/System/Library/Fonts/SFNSDisplayCondensed-Heavy.otf'
p601
sg21
g22
sbag7
(g8
g9
NtRp602
(dp603
g12
g74
sg14
S'Verdana'
p604
sg16
I700
sg17
g13
sg18
g13
sg19
S'/Library/Fonts/Verdana Bold Italic.ttf'
p605
sg21
g22
sbag7
(g8
g9
NtRp606
(dp607
g12
g13
sg14
S'.SF Compact Display'
p608
sg16
I400
sg17
g13
sg18
g13
sg19
S'/System/Library/Fonts/SFCompactDisplay-Black.otf'
p609
sg21
g22
sbag7
(g8
g9
NtRp610
(dp611
g12
g13
sg14
S'Serto Malankara'
p612
sg16
I400
sg17
g13
sg18
g13
sg19
S'/usr/X11/lib/X11/fonts/OTF/SyrCOMMalankara.otf'
p613
sg21
g22
sbag7
(g8
g9
NtRp614
(dp615
g12
g13
sg14
S'.SF NS Display Condensed'
p616
sg16
I400
sg17
g13
sg18
g13
sg19
S'/System/Library/Fonts/SFNSDisplayCondensed-Black.otf'
p617
sg21
g22
sbag7
(g8
g9
NtRp618
(dp619
g12
g13
sg14
S'Estrangelo Edessa'
p620
sg16
I400
sg17
g13
sg18
g13
sg19
S'/usr/X11/lib/X11/fonts/OTF/SyrCOMEdessa.otf'
p621
sg21
g22
sbag7
(g8
g9
NtRp622
(dp623
g12
g13
sg14
S'STIXIntegralsSm'
p624
sg16
I400
sg17
g13
sg18
g13
sg19
S'/Library/Fonts/STIXIntSmReg.otf'
p625
sg21
g22
sbag7
(g8
g9
NtRp626
(dp627
g12
g13
sg14
S'Kokonor'
p628
sg16
I400
sg17
g13
sg18
g13
sg19
S'/Library/Fonts/Kokonor.ttf'
p629
sg21
g22
sbag7
(g8
g9
NtRp630
(dp631
g12
g13
sg14
S'Goha-Tibeb Zemen'
p632
sg16
I400
sg17
g13
sg18
g13
sg19
S'/usr/X11/lib/X11/fonts/OTF/GohaTibebZemen.otf'
p633
sg21
g22
sbag7
(g8
g9
NtRp634
(dp635
g12
g74
sg14
S'Verdana'
p636
sg16
I400
sg17
g13
sg18
g13
sg19
S'/Library/Fonts/Verdana Italic.ttf'
p637
sg21
g22
sbag7
(g8
g9
NtRp638
(dp639
g12
g13
sg14
S'STIXGeneral'
p640
sg16
I700
sg17
g13
sg18
g13
sg19
S'/Library/Fonts/STIXGeneralBol.otf'
p641
sg21
g22
sbag7
(g8
g9
NtRp642
(dp643
g12
g13
sg14
S'Apple Braille'
p644
sg16
I400
sg17
g13
sg18
g13
sg19
S'/System/Library/Fonts/Apple Braille.ttf'
p645
sg21
g22
sbag7
(g8
g9
NtRp646
(dp647
g12
g13
sg14
S'System Font'
p648
sg16
I400
sg17
g13
sg18
g13
sg19
S'/System/Library/Fonts/SFNSDisplay-LightItalic.otf'
p649
sg21
g22
sbag7
(g8
g9
NtRp650
(dp651
g12
g13
sg14
S'.SF Compact Text'
p652
sg16
I400
sg17
g13
sg18
g13
sg19
S'/System/Library/Fonts/SFCompactText-Heavy.otf'
p653
sg21
g22
sbag7
(g8
g9
NtRp654
(dp655
g12
g13
sg14
S'System Font'
p656
sg16
I400
sg17
g13
sg18
g13
sg19
S'/System/Library/Fonts/SFNSDisplay-HeavyItalic.otf'
p657
sg21
g22
sbag7
(g8
g9
NtRp658
(dp659
g12
g13
sg14
S'Serto Urhoy'
p660
sg16
I700
sg17
g13
sg18
g13
sg19
S'/usr/X11/lib/X11/fonts/OTF/SyrCOMUrhoyBold.otf'
p661
sg21
g22
sbag7
(g8
g9
NtRp662
(dp663
g12
g13
sg14
S'Chalkduster'
p664
sg16
I400
sg17
g13
sg18
g13
sg19
S'/Library/Fonts/Chalkduster.ttf'
p665
sg21
g22
sbag7
(g8
g9
NtRp666
(dp667
g12
g13
sg14
S'Serto Mardin'
p668
sg16
I400
sg17
g13
sg18
g13
sg19
S'/usr/X11/lib/X11/fonts/OTF/SyrCOMMardin.otf'
p669
sg21
g22
sbag7
(g8
g9
NtRp670
(dp671
g12
g13
sg14
S'Estrangelo Antioch'
p672
sg16
I400
sg17
g13
sg18
g13
sg19
S'/usr/X11/lib/X11/fonts/OTF/SyrCOMAntioch.otf'
p673
sg21
g22
sbag7
(g8
g9
NtRp674
(dp675
g12
g13
sg14
S'Gurmukhi MT'
p676
sg16
I400
sg17
g13
sg18
g13
sg19
S'/Library/Fonts/Gurmukhi.ttf'
p677
sg21
g22
sbag7
(g8
g9
NtRp678
(dp679
g12
g13
sg14
S'.SF Compact Rounded'
p680
sg16
I400
sg17
g13
sg18
g13
sg19
S'/System/Library/Fonts/SFCompactRounded-Black.otf'
p681
sg21
g22
sbag7
(g8
g9
NtRp682
(dp683
g12
g13
sg14
S'Serto Jerusalem'
p684
sg16
I700
sg17
g13
sg18
g13
sg19
S'/usr/X11/lib/X11/fonts/OTF/SyrCOMJerusalemBold.otf'
p685
sg21
g22
sbag7
(g8
g9
NtRp686
(dp687
g12
g74
sg14
S'STIXNonUnicode'
p688
sg16
I400
sg17
g13
sg18
g13
sg19
S'/Library/Fonts/STIXNonUniIta.otf'
p689
sg21
g22
sbag7
(g8
g9
NtRp690
(dp691
g12
g13
sg14
S'STIXIntegralsUp'
p692
sg16
I400
sg17
g13
sg18
g13
sg19
S'/Library/Fonts/STIXIntUpReg.otf'
p693
sg21
g22
sbag7
(g8
g9
NtRp694
(dp695
g12
g74
sg14
S'STIXGeneral'
p696
sg16
I700
sg17
g13
sg18
g13
sg19
S'/Library/Fonts/STIXGeneralBolIta.otf'
p697
sg21
g22
sbag7
(g8
g9
NtRp698
(dp699
g12
g13
sg14
S'Trebuchet MS'
p700
sg16
I400
sg17
g13
sg18
g13
sg19
S'/Library/Fonts/Trebuchet MS.ttf'
p701
sg21
g22
sbag7
(g8
g9
NtRp702
(dp703
g12
g13
sg14
S'.SF Compact Text'
p704
sg16
I400
sg17
g13
sg18
g13
sg19
S'/System/Library/Fonts/SFCompactText-MediumItalic.otf'
p705
sg21
g22
sbag7
(g8
g9
NtRp706
(dp707
g12
g13
sg14
S'Estrangelo Nisibin'
p708
sg16
I400
sg17
g13
sg18
g13
sg19
S'/usr/X11/lib/X11/fonts/OTF/SyrCOMNisibin.otf'
p709
sg21
g22
sbag7
(g8
g9
NtRp710
(dp711
g12
g13
sg14
S'Courier New'
p712
sg16
I700
sg17
g13
sg18
g13
sg19
S'/Library/Fonts/Courier New Bold.ttf'
p713
sg21
g22
sbag7
(g8
g9
NtRp714
(dp715
g12
g13
sg14
S'Big Caslon'
p716
sg16
I500
sg17
g13
sg18
g13
sg19
S'/Library/Fonts/BigCaslon.ttf'
p717
sg21
g22
sbag7
(g8
g9
NtRp718
(dp719
g12
g13
sg14
S'.SF NS Text Condensed'
p720
sg16
I400
sg17
g13
sg18
g13
sg19
S'/System/Library/Fonts/SFNSTextCondensed-Semibold.otf'
p721
sg21
g22
sbag7
(g8
g9
NtRp722
(dp723
g12
g13
sg14
S'Serto Urhoy'
p724
sg16
I400
sg17
g13
sg18
g13
sg19
S'/usr/X11/lib/X11/fonts/OTF/SyrCOMUrhoy.otf'
p725
sg21
g22
sbag7
(g8
g9
NtRp726
(dp727
g12
g13
sg14
S'Ayuthaya'
p728
sg16
I400
sg17
g13
sg18
g13
sg19
S'/Library/Fonts/Ayuthaya.ttf'
p729
sg21
g22
sbag7
(g8
g9
NtRp730
(dp731
g12
g13
sg14
S'.SF Compact Text'
p732
sg16
I400
sg17
g13
sg18
g13
sg19
S'/System/Library/Fonts/SFCompactText-SemiboldItalic.otf'
p733
sg21
g22
sbag7
(g8
g9
NtRp734
(dp735
g12
g13
sg14
S'.SF Compact Rounded'
p736
sg16
I400
sg17
g13
sg18
g13
sg19
S'/System/Library/Fonts/SFCompactRounded-Bold.otf'
p737
sg21
g22
sbag7
(g8
g9
NtRp738
(dp739
g12
g13
sg14
S'STIXNonUnicode'
p740
sg16
I700
sg17
g13
sg18
g13
sg19
S'/Library/Fonts/STIXNonUniBol.otf'
p741
sg21
g22
sbag7
(g8
g9
NtRp742
(dp743
g12
g13
sg14
S'Webdings'
p744
sg16
I400
sg17
g13
sg18
g13
sg19
S'/Library/Fonts/Webdings.ttf'
p745
sg21
g22
sbag7
(g8
g9
NtRp746
(dp747
g12
g13
sg14
S'Apple Braille'
p748
sg16
I400
sg17
g13
sg18
g13
sg19
S'/System/Library/Fonts/Apple Braille Pinpoint 6 Dot.ttf'
p749
sg21
g22
sbag7
(g8
g9
NtRp750
(dp751
g12
g13
sg14
S'.SF Compact Text'
p752
sg16
I400
sg17
g13
sg18
g13
sg19
S'/System/Library/Fonts/SFCompactText-RegularItalic.otf'
p753
sg21
g22
sbag7
(g8
g9
NtRp754
(dp755
g12
g13
sg14
S'Symbol'
p756
sg16
I400
sg17
g13
sg18
g13
sg19
S'/System/Library/Fonts/Symbol.ttf'
p757
sg21
g22
sbag7
(g8
g9
NtRp758
(dp759
g12
g74
sg14
S'Trebuchet MS'
p760
sg16
I700
sg17
g13
sg18
g13
sg19
S'/Library/Fonts/Trebuchet MS Bold Italic.ttf'
p761
sg21
g22
sbag7
(g8
g9
NtRp762
(dp763
g12
g13
sg14
S'System Font'
p764
sg16
I400
sg17
g13
sg18
g13
sg19
S'/System/Library/Fonts/SFNSDisplay-UltralightItalic.otf'
p765
sg21
g22
sbag7
(g8
g9
NtRp766
(dp767
g12
g13
sg14
S'Luxi Serif'
p768
sg16
I400
sg17
g13
sg18
g13
sg19
S'/usr/X11R6/lib/X11/fonts/TTF/luxirr.ttf'
p769
sg21
g22
sbag7
(g8
g9
NtRp770
(dp771
g12
g13
sg14
S'Wingdings 2'
p772
sg16
I400
sg17
g13
sg18
g13
sg19
S'/Library/Fonts/Wingdings 2.ttf'
p773
sg21
g22
sbag7
(g8
g9
NtRp774
(dp775
g12
g13
sg14
S'Tahoma'
p776
sg16
I400
sg17
g13
sg18
g13
sg19
S'/Library/Fonts/Tahoma.ttf'
p777
sg21
g22
sbag7
(g8
g9
NtRp778
(dp779
g12
g74
sg14
S'Brush Script MT'
p780
sg16
I400
sg17
g13
sg18
g13
sg19
S'/Library/Fonts/Brush Script.ttf'
p781
sg21
g22
sbag7
(g8
g9
NtRp782
(dp783
g12
g13
sg14
S'.Keyboard'
p784
sg16
I400
sg17
g13
sg18
g13
sg19
S'/System/Library/Fonts/Keyboard.ttf'
p785
sg21
g22
sbag7
(g8
g9
NtRp786
(dp787
g12
g13
sg14
S'.SF Compact Text'
p788
sg16
I400
sg17
g13
sg18
g13
sg19
S'/System/Library/Fonts/SFCompactText-Medium.otf'
p789
sg21
g22
sbag7
(g8
g9
NtRp790
(dp791
g12
g13
sg14
S'STIXSizeOneSym'
p792
sg16
I400
sg17
g13
sg18
g13
sg19
S'/Library/Fonts/STIXSizOneSymReg.otf'
p793
sg21
g22
sbag7
(g8
g9
NtRp794
(dp795
g12
g13
sg14
S'STIXIntegralsUpSm'
p796
sg16
I400
sg17
g13
sg18
g13
sg19
S'/Library/Fonts/STIXIntUpSmReg.otf'
p797
sg21
g22
sbag7
(g8
g9
NtRp798
(dp799
g12
g13
sg14
S'Andale Mono'
p800
sg16
I400
sg17
g13
sg18
g13
sg19
S'/Library/Fonts/Andale Mono.ttf'
p801
sg21
g22
sbag7
(g8
g9
NtRp802
(dp803
g12
g13
sg14
S'Khmer Sangam MN'
p804
sg16
I400
sg17
g13
sg18
g13
sg19
S'/Library/Fonts/Khmer Sangam MN.ttf'
p805
sg21
g22
sbag7
(g8
g9
NtRp806
(dp807
g12
g25
sg14
S'Luxi Mono'
p808
sg16
I700
sg17
g13
sg18
g13
sg19
S'/usr/X11R6/lib/X11/fonts/TTF/luximbi.ttf'
p809
sg21
g22
sbag7
(g8
g9
NtRp810
(dp811
g12
g13
sg14
S'Microsoft Sans Serif'
p812
sg16
I400
sg17
g13
sg18
g13
sg19
S'/Library/Fonts/Microsoft Sans Serif.ttf'
p813
sg21
g22
sbag7
(g8
g9
NtRp814
(dp815
g12
g13
sg14
S'STIXIntegralsUpD'
p816
sg16
I700
sg17
g13
sg18
g13
sg19
S'/Library/Fonts/STIXIntUpDBol.otf'
p817
sg21
g22
sbag7
(g8
g9
NtRp818
(dp819
g12
g13
sg14
S'.SF Compact Text'
p820
sg16
I400
sg17
g13
sg18
g13
sg19
S'/System/Library/Fonts/SFCompactText-Light.otf'
p821
sg21
g22
sbag7
(g8
g9
NtRp822
(dp823
g12
g13
sg14
S'STIXGeneral'
p824
sg16
I400
sg17
g13
sg18
g13
sg19
S'/Library/Fonts/STIXGeneral.otf'
p825
sg21
g22
sbag7
(g8
g9
NtRp826
(dp827
g12
g74
sg14
S'Courier New'
p828
sg16
I400
sg17
g13
sg18
g13
sg19
S'/Library/Fonts/Courier New Italic.ttf'
p829
sg21
g22
sbag7
(g8
g9
NtRp830
(dp831
g12
g13
sg14
S'Arial Black'
p832
sg16
I900
sg17
g13
sg18
g13
sg19
S'/Library/Fonts/Arial Black.ttf'
p833
sg21
g22
sbag7
(g8
g9
NtRp834
(dp835
g12
g13
sg14
S'Serto Batnan'
p836
sg16
I400
sg17
g13
sg18
g13
sg19
S'/usr/X11/lib/X11/fonts/OTF/SyrCOMBatnan.otf'
p837
sg21
g22
sbag7
(g8
g9
NtRp838
(dp839
g12
g13
sg14
S'.SF Compact Display'
p840
sg16
I400
sg17
g13
sg18
g13
sg19
S'/System/Library/Fonts/SFCompactDisplay-Ultralight.otf'
p841
sg21
g22
sbag7
(g8
g9
NtRp842
(dp843
g12
g13
sg14
S'.SF Compact Display'
p844
sg16
I400
sg17
g13
sg18
g13
sg19
S'/System/Library/Fonts/SFCompactDisplay-Thin.otf'
p845
sg21
g22
sbag7
(g8
g9
NtRp846
(dp847
g12
g74
sg14
S'STIXGeneral'
p848
sg16
I400
sg17
g13
sg18
g13
sg19
S'/Library/Fonts/STIXGeneralItalic.otf'
p849
sg21
g22
sbag7
(g8
g9
NtRp850
(dp851
g12
g13
sg14
S'Silom'
p852
sg16
I400
sg17
g13
sg18
g13
sg19
S'/Library/Fonts/Silom.ttf'
p853
sg21
g22
sbag7
(g8
g9
NtRp854
(dp855
g12
g13
sg14
S'.SF NS Display Condensed'
p856
sg16
I400
sg17
g13
sg18
g13
sg19
S'/System/Library/Fonts/SFNSDisplayCondensed-Medium.otf'
p857
sg21
g22
sbag7
(g8
g9
NtRp858
(dp859
g12
g13
sg14
S'.SF NS Text Condensed'
p860
sg16
I400
sg17
g13
sg18
g13
sg19
S'/System/Library/Fonts/SFNSTextCondensed-Light.otf'
p861
sg21
g22
sbag7
(g8
g9
NtRp862
(dp863
g12
g13
sg14
S'STIXSizeFourSym'
p864
sg16
I400
sg17
g13
sg18
g13
sg19
S'/Library/Fonts/STIXSizFourSymReg.otf'
p865
sg21
g22
sbag7
(g8
g9
NtRp866
(dp867
g12
g13
sg14
S'Apple Chancery'
p868
sg16
I400
sg17
g13
sg18
g13
sg19
S'/Library/Fonts/Apple Chancery.ttf'
p869
sg21
g22
sbag7
(g8
g9
NtRp870
(dp871
g12
g13
sg14
S'.SF Compact Text'
p872
sg16
I400
sg17
g13
sg18
g13
sg19
S'/System/Library/Fonts/SFCompactText-LightItalic.otf'
p873
sg21
g22
sbag7
(g8
g9
NtRp874
(dp875
g12
g13
sg14
S'Wingdings 3'
p876
sg16
I400
sg17
g13
sg18
g13
sg19
S'/Library/Fonts/Wingdings 3.ttf'
p877
sg21
g22
sbag7
(g8
g9
NtRp878
(dp879
g12
g13
sg14
S'Comic Sans MS'
p880
sg16
I700
sg17
g13
sg18
g13
sg19
S'/Library/Fonts/Comic Sans MS Bold.ttf'
p881
sg21
g22
sbag7
(g8
g9
NtRp882
(dp883
g12
g13
sg14
S'.SF Compact Display'
p884
sg16
I400
sg17
g13
sg18
g13
sg19
S'/System/Library/Fonts/SFCompactDisplay-Heavy.otf'
p885
sg21
g22
sbag7
(g8
g9
NtRp886
(dp887
g12
g13
sg14
S'STIXIntegralsUpSm'
p888
sg16
I700
sg17
g13
sg18
g13
sg19
S'/Library/Fonts/STIXIntUpSmBol.otf'
p889
sg21
g22
sbag7
(g8
g9
NtRp890
(dp891
g12
g13
sg14
S'Lao Sangam MN'
p892
sg16
I400
sg17
g13
sg18
g13
sg19
S'/Library/Fonts/Lao Sangam MN.ttf'
p893
sg21
g22
sbag7
(g8
g9
NtRp894
(dp895
g12
g13
sg14
S'Trattatello'
p896
sg16
I400
sg17
g13
sg18
g13
sg19
S'/Library/Fonts/Trattatello.ttf'
p897
sg21
g22
sbag7
(g8
g9
NtRp898
(dp899
g12
g13
sg14
S'STIXSizeOneSym'
p900
sg16
I700
sg17
g13
sg18
g13
sg19
S'/Library/Fonts/STIXSizOneSymBol.otf'
p901
sg21
g22
sbag7
(g8
g9
NtRp902
(dp903
g12
g13
sg14
S'Comic Sans MS'
p904
sg16
I400
sg17
g13
sg18
g13
sg19
S'/Library/Fonts/Comic Sans MS.ttf'
p905
sg21
g22
sbag7
(g8
g9
NtRp906
(dp907
g12
g13
sg14
S'STIXSizeTwoSym'
p908
sg16
I400
sg17
g13
sg18
g13
sg19
S'/Library/Fonts/STIXSizTwoSymReg.otf'
p909
sg21
g22
sbag7
(g8
g9
NtRp910
(dp911
g12
g13
sg14
S'Estrangelo Nisibin Outline'
p912
sg16
I400
sg17
g13
sg18
g13
sg19
S'/usr/X11/lib/X11/fonts/OTF/SyrCOMNisibinOutline.otf'
p913
sg21
g22
sbag7
(g8
g9
NtRp914
(dp915
g12
g13
sg14
S'Bodoni Ornaments'
p916
sg16
I400
sg17
g13
sg18
g13
sg19
S'/Library/Fonts/Bodoni Ornaments.ttf'
p917
sg21
g22
sbag7
(g8
g9
NtRp918
(dp919
g12
g13
sg14
S'STIXSizeFourSym'
p920
sg16
I700
sg17
g13
sg18
g13
sg19
S'/Library/Fonts/STIXSizFourSymBol.otf'
p921
sg21
g22
sbag7
(g8
g9
NtRp922
(dp923
g12
g13
sg14
S'Arial'
p924
sg16
I700
sg17
g13
sg18
g13
sg19
S'/Library/Fonts/Arial Bold.ttf'
p925
sg21
g22
sbag7
(g8
g9
NtRp926
(dp927
g12
g13
sg14
S'Georgia'
p928
sg16
I700
sg17
g13
sg18
g13
sg19
S'/Library/Fonts/Georgia Bold.ttf'
p929
sg21
g22
sbag7
(g8
g9
NtRp930
(dp931
g12
g13
sg14
S'STIXIntegralsD'
p932
sg16
I400
sg17
g13
sg18
g13
sg19
S'/Library/Fonts/STIXIntDReg.otf'
p933
sg21
g22
sbag7
(g8
g9
NtRp934
(dp935
g12
g13
sg14
S'Serto Jerusalem Outline'
p936
sg16
I400
sg17
g13
sg18
g13
sg19
S'/usr/X11/lib/X11/fonts/OTF/SyrCOMJerusalemOutline.otf'
p937
sg21
g22
sbag7
(g8
g9
NtRp938
(dp939
g12
g13
sg14
S'System Font'
p940
sg16
I400
sg17
g13
sg18
g13
sg19
S'/System/Library/Fonts/SFNSSymbols-Regular.otf'
p941
sg21
g22
sbag7
(g8
g9
NtRp942
(dp943
g12
g74
sg14
S'Serto Jerusalem'
p944
sg16
I400
sg17
g13
sg18
g13
sg19
S'/usr/X11/lib/X11/fonts/OTF/SyrCOMJerusalemItalic.otf'
p945
sg21
g22
sbag7
(g8
g9
NtRp946
(dp947
g12
g13
sg14
S'Wingdings'
p948
sg16
I400
sg17
g13
sg18
g13
sg19
S'/Library/Fonts/Wingdings.ttf'
p949
sg21
g22
sbag7
(g8
g9
NtRp950
(dp951
g12
g13
sg14
S'Impact'
p952
sg16
I400
sg17
g13
sg18
g13
sg19
S'/Library/Fonts/Impact.ttf'
p953
sg21
g22
sbag7
(g8
g9
NtRp954
(dp955
g12
g13
sg14
S'Tahoma'
p956
sg16
I700
sg17
g13
sg18
g13
sg19
S'/Library/Fonts/Tahoma Bold.ttf'
p957
sg21
g22
sbag7
(g8
g9
NtRp958
(dp959
g12
g74
sg14
S'Georgia'
p960
sg16
I700
sg17
g13
sg18
g13
sg19
S'/Library/Fonts/Georgia Bold Italic.ttf'
p961
sg21
g22
sbag7
(g8
g9
NtRp962
(dp963
g12
g13
sg14
S'STIXIntegralsUpD'
p964
sg16
I400
sg17
g13
sg18
g13
sg19
S'/Library/Fonts/STIXIntUpDReg.otf'
p965
sg21
g22
sbag7
(g8
g9
NtRp966
(dp967
g12
g13
sg14
S'Sathu'
p968
sg16
I400
sg17
g13
sg18
g13
sg19
S'/Library/Fonts/Sathu.ttf'
p969
sg21
g22
sbag7
(g8
g9
NtRp970
(dp971
g12
g13
sg14
S'.SF Compact Rounded'
p972
sg16
I400
sg17
g13
sg18
g13
sg19
S'/System/Library/Fonts/SFCompactRounded-Regular.otf'
p973
sg21
g22
sbag7
(g8
g9
NtRp974
(dp975
g12
g13
sg14
S'System Font'
p976
sg16
I400
sg17
g13
sg18
g13
sg19
S'/System/Library/Fonts/SFNSDisplay-ThinItalic.otf'
p977
sg21
g22
sbasS'defaultFamily'
p978
(dp979
S'afm'
p980
S'Helvetica'
p981
sS'ttf'
p982
S'Bitstream Vera Sans'
p983
ssS'ttffiles'
p984
(lp985
S'/System/Library/Frameworks/Python.framework/Versions/2.7/Extras/lib/python/matplotlib/mpl-data/fonts/ttf/cmex10.ttf'
p986
aS'/System/Library/Frameworks/Python.framework/Versions/2.7/Extras/lib/python/matplotlib/mpl-data/fonts/ttf/VeraBI.ttf'
p987
aS'/System/Library/Frameworks/Python.framework/Versions/2.7/Extras/lib/python/matplotlib/mpl-data/fonts/ttf/STIXNonUni.ttf'
p988
aS'/System/Library/Frameworks/Python.framework/Versions/2.7/Extras/lib/python/matplotlib/mpl-data/fonts/ttf/STIXNonUniBol.ttf'
p989
aS'/System/Library/Frameworks/Python.framework/Versions/2.7/Extras/lib/python/matplotlib/mpl-data/fonts/ttf/VeraMoBd.ttf'
p990
aS'/System/Library/Frameworks/Python.framework/Versions/2.7/Extras/lib/python/matplotlib/mpl-data/fonts/ttf/cmr10.ttf'
p991
aS'/System/Library/Frameworks/Python.framework/Versions/2.7/Extras/lib/python/matplotlib/mpl-data/fonts/ttf/STIXGeneral.ttf'
p992
aS'/System/Library/Frameworks/Python.framework/Versions/2.7/Extras/lib/python/matplotlib/mpl-data/fonts/ttf/VeraMoIt.ttf'
p993
aS'/System/Library/Frameworks/Python.framework/Versions/2.7/Extras/lib/python/matplotlib/mpl-data/fonts/ttf/VeraSe.ttf'
p994
aS'/System/Library/Frameworks/Python.framework/Versions/2.7/Extras/lib/python/matplotlib/mpl-data/fonts/ttf/STIXSizFiveSymReg.ttf'
p995
aS'/System/Library/Frameworks/Python.framework/Versions/2.7/Extras/lib/python/matplotlib/mpl-data/fonts/ttf/VeraMono.ttf'
p996
aS'/System/Library/Frameworks/Python.framework/Versions/2.7/Extras/lib/python/matplotlib/mpl-data/fonts/ttf/VeraMoBI.ttf'
p997
aS'/System/Library/Frameworks/Python.framework/Versions/2.7/Extras/lib/python/matplotlib/mpl-data/fonts/ttf/STIXGeneralBol.ttf'
p998
aS'/System/Library/Frameworks/Python.framework/Versions/2.7/Extras/lib/python/matplotlib/mpl-data/fonts/ttf/STIXGeneralItalic.ttf'
p999
aS'/System/Library/Frameworks/Python.framework/Versions/2.7/Extras/lib/python/matplotlib/mpl-data/fonts/ttf/STIXSizFourSymReg.ttf'
p1000
aS'/System/Library/Frameworks/Python.framework/Versions/2.7/Extras/lib/python/matplotlib/mpl-data/fonts/ttf/STIXSizThreeSymBol.ttf'
p1001
aS'/System/Library/Frameworks/Python.framework/Versions/2.7/Extras/lib/python/matplotlib/mpl-data/fonts/ttf/STIXSizOneSymBol.ttf'
p1002
aS'/System/Library/Frameworks/Python.framework/Versions/2.7/Extras/lib/python/matplotlib/mpl-data/fonts/ttf/STIXSizFourSymBol.ttf'
p1003
aS'/System/Library/Frameworks/Python.framework/Versions/2.7/Extras/lib/python/matplotlib/mpl-data/fonts/ttf/VeraBd.ttf'
p1004
aS'/System/Library/Frameworks/Python.framework/Versions/2.7/Extras/lib/python/matplotlib/mpl-data/fonts/ttf/cmsy10.ttf'
p1005
aS'/System/Library/Frameworks/Python.framework/Versions/2.7/Extras/lib/python/matplotlib/mpl-data/fonts/ttf/STIXSizTwoSymReg.ttf'
p1006
aS'/System/Library/Frameworks/Python.framework/Versions/2.7/Extras/lib/python/matplotlib/mpl-data/fonts/ttf/STIXNonUniBolIta.ttf'
p1007
aS'/System/Library/Frameworks/Python.framework/Versions/2.7/Extras/lib/python/matplotlib/mpl-data/fonts/ttf/cmb10.ttf'
p1008
aS'/System/Library/Frameworks/Python.framework/Versions/2.7/Extras/lib/python/matplotlib/mpl-data/fonts/ttf/cmmi10.ttf'
p1009
aS'/System/Library/Frameworks/Python.framework/Versions/2.7/Extras/lib/python/matplotlib/mpl-data/fonts/ttf/VeraIt.ttf'
p1010
aS'/System/Library/Frameworks/Python.framework/Versions/2.7/Extras/lib/python/matplotlib/mpl-data/fonts/ttf/STIXSizOneSymReg.ttf'
p1011
aS'/System/Library/Frameworks/Python.framework/Versions/2.7/Extras/lib/python/matplotlib/mpl-data/fonts/ttf/Vera.ttf'
p1012
aS'/System/Library/Frameworks/Python.framework/Versions/2.7/Extras/lib/python/matplotlib/mpl-data/fonts/ttf/cmss10.ttf'
p1013
aS'/System/Library/Frameworks/Python.framework/Versions/2.7/Extras/lib/python/matplotlib/mpl-data/fonts/ttf/VeraSeBd.ttf'
p1014
aS'/System/Library/Frameworks/Python.framework/Versions/2.7/Extras/lib/python/matplotlib/mpl-data/fonts/ttf/STIXSizTwoSymBol.ttf'
p1015
aS'/System/Library/Frameworks/Python.framework/Versions/2.7/Extras/lib/python/matplotlib/mpl-data/fonts/ttf/STIXNonUniIta.ttf'
p1016
aS'/System/Library/Frameworks/Python.framework/Versions/2.7/Extras/lib/python/matplotlib/mpl-data/fonts/ttf/cmtt10.ttf'
p1017
aS'/System/Library/Frameworks/Python.framework/Versions/2.7/Extras/lib/python/matplotlib/mpl-data/fonts/ttf/STIXGeneralBolIta.ttf'
p1018
aS'/System/Library/Frameworks/Python.framework/Versions/2.7/Extras/lib/python/matplotlib/mpl-data/fonts/ttf/STIXSizThreeSymReg.ttf'
p1019
aS'/System/Library/Fonts/SFNSDisplayCondensed-Regular.otf'
p1020
aS'/Library/Fonts/Trebuchet MS Italic.ttf'
p1021
aS'/Library/Fonts/Hoefler Text Ornaments.ttf'
p1022
aS'/System/Library/Fonts/SFCompactRounded-Heavy.otf'
p1023
aS'/Library/Fonts/Times New Roman.ttf'
p1024
aS'/usr/X11R6/lib/X11/fonts/TTF/VeraBI.ttf'
p1025
aS'/System/Library/Fonts/SFCompactDisplay-Medium.otf'
p1026
aS'/usr/X11/lib/X11/fonts/TTF/luximri.ttf'
p1027
aS'/Library/Fonts/Verdana Bold.ttf'
p1028
aS'/System/Library/Fonts/SFCompactRounded-Medium.otf'
p1029
aS'/usr/X11/lib/X11/fonts/OTF/SyrCOMBatnanBold.otf'
p1030
aS'/Library/Fonts/Arial Unicode.ttf'
p1031
aS'/usr/X11/lib/X11/fonts/TTF/VeraSe.ttf'
p1032
aS'/Library/Fonts/STIXSizThreeSymReg.otf'
p1033
aS'/Library/Fonts/DIN Condensed Bold.ttf'
p1034
aS'/usr/X11R6/lib/X11/fonts/TTF/luxirri.ttf'
p1035
aS'/System/Library/Fonts/SFNSDisplay-BoldItalic.otf'
p1036
aS'/usr/X11/lib/X11/fonts/OTF/SyrCOMTalada.otf'
p1037
aS'/usr/X11/lib/X11/fonts/TTF/luximr.ttf'
p1038
aS'/Library/Fonts/Herculanum.ttf'
p1039
aS'/Library/Fonts/Arial.ttf'
p1040
aS'/System/Library/Fonts/SFCompactDisplay-Semibold.otf'
p1041
aS'/Library/Fonts/AppleGothic.ttf'
p1042
aS'/System/Library/Fonts/SFNSTextCondensed-Bold.otf'
p1043
aS'/Library/Fonts/Arial Narrow.ttf'
p1044
aS'/System/Library/Fonts/SFNSDisplayCondensed-Bold.otf'
p1045
aS'/Library/Fonts/NISC18030.ttf'
p1046
aS'/usr/X11/lib/X11/fonts/TTF/luximb.ttf'
p1047
aS'/usr/X11/lib/X11/fonts/OTF/SyrCOMMardinBold.otf'
p1048
aS'/System/Library/Fonts/SFCompactRounded-Ultralight.otf'
p1049
aS'/System/Library/Fonts/SFNSDisplayCondensed-Semibold.otf'
p1050
aS'/Library/Fonts/AppleMyungjo.ttf'
p1051
aS'/usr/X11R6/lib/X11/fonts/TTF/VeraMono.ttf'
p1052
aS'/Library/Fonts/Mishafi Gold.ttf'
p1053
aS'/usr/X11/lib/X11/fonts/TTF/luxisri.ttf'
p1054
aS'/System/Library/Fonts/ZapfDingbats.ttf'
p1055
aS'/System/Library/Fonts/SFCompactRounded-Semibold.otf'
p1056
aS'/System/Library/Fonts/SFCompactText-BoldItalic.otf'
p1057
aS'/Library/Fonts/STIXIntDBol.otf'
p1058
aS'/usr/X11R6/lib/X11/fonts/TTF/Vera.ttf'
p1059
aS'/usr/X11R6/lib/X11/fonts/TTF/VeraMoIt.ttf'
p1060
aS'/System/Library/Fonts/SFNSTextItalic.ttf'
p1061
aS'/Library/Fonts/DIN Alternate Bold.ttf'
p1062
aS'/System/Library/Fonts/SFCompactDisplay-Bold.otf'
p1063
aS'/Library/Fonts/STIXSizThreeSymBol.otf'
p1064
aS'/System/Library/Fonts/SFNSDisplay.ttf'
p1065
aS'/Library/Fonts/Courier New.ttf'
p1066
aS'/Library/Fonts/Arial Narrow Bold Italic.ttf'
p1067
aS'/usr/X11/lib/X11/fonts/OTF/SyrCOMJerusalem.otf'
p1068
aS'/Library/Fonts/Luminari.ttf'
p1069
aS'/Library/Fonts/Zapfino.ttf'
p1070
aS'/Library/Fonts/Arial Narrow Bold.ttf'
p1071
aS'/Library/Fonts/Times New Roman Italic.ttf'
p1072
aS'/System/Library/Fonts/SFNSTextCondensed-Medium.otf'
p1073
aS'/Library/Fonts/Krungthep.ttf'
p1074
aS'/System/Library/Fonts/SFNSDisplayCondensed-Light.otf'
p1075
aS'/System/Library/Fonts/Apple Symbols.ttf'
p1076
aS'/Library/Fonts/STIXSizTwoSymBol.otf'
p1077
aS'/Library/Fonts/STIXIntSmBol.otf'
p1078
aS'/Library/Fonts/Diwan Thuluth.ttf'
p1079
aS'/Library/Fonts/Trebuchet MS Bold.ttf'
p1080
aS'/usr/X11/lib/X11/fonts/OTF/SyrCOMAdiabene.otf'
p1081
aS'/System/Library/Fonts/SFCompactText-HeavyItalic.otf'
p1082
aS'/Library/Fonts/Bradley Hand Bold.ttf'
p1083
aS'/usr/X11/lib/X11/fonts/TTF/luxirb.ttf'
p1084
aS'/System/Library/Fonts/SFCompactRounded-Thin.otf'
p1085
aS'/System/Library/Fonts/SFNSDisplay-SemiboldItalic.otf'
p1086
aS'/Library/Fonts/Times New Roman Bold Italic.ttf'
p1087
aS'/System/Library/Fonts/SFNSDisplay-RegularItalic.otf'
p1088
aS'/Library/Fonts/Arial Narrow Italic.ttf'
p1089
aS'/System/Library/Fonts/SFCompactRounded-Light.otf'
p1090
aS'/System/Library/Fonts/SFCompactDisplay-Regular.otf'
p1091
aS'/usr/X11/lib/X11/fonts/OTF/SyrCOMCtesiphon.otf'
p1092
aS'/System/Library/Fonts/SFNSDisplayCondensed-Ultralight.otf'
p1093
aS'/usr/X11R6/lib/X11/fonts/TTF/luximr.ttf'
p1094
aS'/System/Library/Fonts/SFNSDisplay-MediumItalic.otf'
p1095
aS'/usr/X11/lib/X11/fonts/OTF/SyrCOMMidyat.otf'
p1096
aS'/System/Library/Fonts/Apple Braille Outline 8 Dot.ttf'
p1097
aS'/System/Library/Fonts/SFNSTextCondensed-Heavy.otf'
p1098
aS'/usr/X11/lib/X11/fonts/OTF/SyrCOMQenNeshrin.otf'
p1099
aS'/Library/Fonts/PlantagenetCherokee.ttf'
p1100
aS'/usr/X11/lib/X11/fonts/OTF/SyrCOMTurAbdin.otf'
p1101
aS'/Library/Fonts/Times New Roman Bold.ttf'
p1102
aS'/usr/X11/lib/X11/fonts/TTF/VeraIt.ttf'
p1103
aS'/usr/X11/lib/X11/fonts/TTF/luxisbi.ttf'
p1104
aS'/Library/Fonts/Arial Bold Italic.ttf'
p1105
aS'/usr/X11/lib/X11/fonts/TTF/GohaTibebZemen.ttf'
p1106
aS'/System/Library/Fonts/SFNSTextCondensed-Regular.otf'
p1107
aS'/Library/Fonts/STIXVar.otf'
p1108
aS'/Library/Fonts/Mishafi.ttf'
p1109
aS'/Library/Fonts/STIXVarBol.otf'
p1110
aS'/Library/Fonts/Georgia.ttf'
p1111
aS'/System/Library/Fonts/SFNSDisplay-BlackItalic.otf'
p1112
aS'/System/Library/Fonts/SFCompactText-Regular.otf'
p1113
aS'/System/Library/Fonts/SFCompactText-Semibold.otf'
p1114
aS'/usr/X11R6/lib/X11/fonts/TTF/luxirb.ttf'
p1115
aS'/usr/X11/lib/X11/fonts/TTF/VeraMono.ttf'
p1116
aS'/System/Library/Fonts/LastResort.otf'
p1117
aS'/Library/Fonts/STIXIntUpBol.otf'
p1118
aS'/System/Library/Fonts/SFCompactText-Bold.otf'
p1119
aS'/Library/Fonts/Skia.ttf'
p1120
aS'/Library/Fonts/STIXSizFiveSymReg.otf'
p1121
aS'/Library/Fonts/Verdana.ttf'
p1122
aS'/usr/X11R6/lib/X11/fonts/TTF/luxisbi.ttf'
p1123
aS'/Library/Fonts/Farisi.ttf'
p1124
aS'/System/Library/Fonts/SFNSText.ttf'
p1125
aS'/usr/X11/lib/X11/fonts/TTF/luxisb.ttf'
p1126
aS'/usr/X11/lib/X11/fonts/TTF/VeraMoIt.ttf'
p1127
aS'/System/Library/Fonts/SFCompactDisplay-Light.otf'
p1128
aS'/Library/Fonts/STIXNonUni.otf'
p1129
aS'/Library/Fonts/Bodoni 72 Smallcaps Book.ttf'
p1130
aS'/usr/X11/lib/X11/fonts/TTF/luxirbi.ttf'
p1131
aS'/usr/X11/lib/X11/fonts/TTF/luxisr.ttf'
p1132
aS'/Library/Fonts/Arial Italic.ttf'
p1133
aS'/usr/X11/lib/X11/fonts/TTF/VeraMoBd.ttf'
p1134
aS'/usr/X11/lib/X11/fonts/TTF/VeraMoBI.ttf'
p1135
aS'/Library/Fonts/STIXNonUniBolIta.otf'
p1136
aS'/System/Library/Fonts/Apple Braille Pinpoint 8 Dot.ttf'
p1137
aS'/Library/Fonts/Georgia Italic.ttf'
p1138
aS'/System/Library/Fonts/Apple Braille Outline 6 Dot.ttf'
p1139
aS'/Library/Fonts/Courier New Bold Italic.ttf'
p1140
aS'/usr/X11/lib/X11/fonts/TTF/VeraBd.ttf'
p1141
aS'/usr/X11/lib/X11/fonts/OTF/SyrCOMKharput.otf'
p1142
aS'/Library/Fonts/Arial Rounded Bold.ttf'
p1143
aS'/usr/X11/lib/X11/fonts/TTF/luxirri.ttf'
p1144
aS'/System/Library/Fonts/SFNSDisplayCondensed-Thin.otf'
p1145
aS'/usr/X11R6/lib/X11/fonts/TTF/luxirbi.ttf'
p1146
aS'/System/Library/Fonts/SFNSDisplayCondensed-Heavy.otf'
p1147
aS'/Library/Fonts/Verdana Bold Italic.ttf'
p1148
aS'/System/Library/Fonts/SFCompactDisplay-Black.otf'
p1149
aS'/usr/X11/lib/X11/fonts/OTF/SyrCOMMalankara.otf'
p1150
aS'/System/Library/Fonts/SFNSDisplayCondensed-Black.otf'
p1151
aS'/usr/X11/lib/X11/fonts/OTF/SyrCOMEdessa.otf'
p1152
aS'/Library/Fonts/STIXIntSmReg.otf'
p1153
aS'/Library/Fonts/Kokonor.ttf'
p1154
aS'/usr/X11R6/lib/X11/fonts/TTF/VeraIt.ttf'
p1155
aS'/usr/X11/lib/X11/fonts/OTF/GohaTibebZemen.otf'
p1156
aS'/Library/Fonts/Verdana Italic.ttf'
p1157
aS'/Library/Fonts/STIXGeneralBol.otf'
p1158
aS'/System/Library/Fonts/Apple Braille.ttf'
p1159
aS'/System/Library/Fonts/SFNSDisplay-LightItalic.otf'
p1160
aS'/System/Library/Fonts/SFCompactText-Heavy.otf'
p1161
aS'/System/Library/Fonts/SFNSDisplay-HeavyItalic.otf'
p1162
aS'/usr/X11/lib/X11/fonts/OTF/SyrCOMUrhoyBold.otf'
p1163
aS'/Library/Fonts/Chalkduster.ttf'
p1164
aS'/usr/X11/lib/X11/fonts/OTF/SyrCOMMardin.otf'
p1165
aS'/usr/X11/lib/X11/fonts/OTF/SyrCOMAntioch.otf'
p1166
aS'/Library/Fonts/Gurmukhi.ttf'
p1167
aS'/System/Library/Fonts/SFCompactRounded-Black.otf'
p1168
aS'/usr/X11/lib/X11/fonts/OTF/SyrCOMJerusalemBold.otf'
p1169
aS'/Library/Fonts/STIXNonUniIta.otf'
p1170
aS'/Library/Fonts/STIXIntUpReg.otf'
p1171
aS'/usr/X11R6/lib/X11/fonts/TTF/luximb.ttf'
p1172
aS'/Library/Fonts/STIXGeneralBolIta.otf'
p1173
aS'/Library/Fonts/Trebuchet MS.ttf'
p1174
aS'/System/Library/Fonts/SFCompactText-MediumItalic.otf'
p1175
aS'/usr/X11/lib/X11/fonts/OTF/SyrCOMNisibin.otf'
p1176
aS'/usr/X11/lib/X11/fonts/TTF/VeraBI.ttf'
p1177
aS'/Library/Fonts/Courier New Bold.ttf'
p1178
aS'/Library/Fonts/BigCaslon.ttf'
p1179
aS'/System/Library/Fonts/SFNSTextCondensed-Semibold.otf'
p1180
aS'/usr/X11/lib/X11/fonts/OTF/SyrCOMUrhoy.otf'
p1181
aS'/Library/Fonts/Ayuthaya.ttf'
p1182
aS'/System/Library/Fonts/SFCompactText-SemiboldItalic.otf'
p1183
aS'/System/Library/Fonts/SFCompactRounded-Bold.otf'
p1184
aS'/Library/Fonts/STIXNonUniBol.otf'
p1185
aS'/Library/Fonts/Webdings.ttf'
p1186
aS'/System/Library/Fonts/Apple Braille Pinpoint 6 Dot.ttf'
p1187
aS'/System/Library/Fonts/SFCompactText-RegularItalic.otf'
p1188
aS'/System/Library/Fonts/Symbol.ttf'
p1189
aS'/usr/X11R6/lib/X11/fonts/TTF/luxisr.ttf'
p1190
aS'/Library/Fonts/Trebuchet MS Bold Italic.ttf'
p1191
aS'/usr/X11/lib/X11/fonts/TTF/VeraSeBd.ttf'
p1192
aS'/System/Library/Fonts/SFNSDisplay-UltralightItalic.otf'
p1193
aS'/usr/X11R6/lib/X11/fonts/TTF/luxirr.ttf'
p1194
aS'/Library/Fonts/Wingdings 2.ttf'
p1195
aS'/Library/Fonts/Tahoma.ttf'
p1196
aS'/Library/Fonts/Brush Script.ttf'
p1197
aS'/System/Library/Fonts/Keyboard.ttf'
p1198
aS'/System/Library/Fonts/SFCompactText-Medium.otf'
p1199
aS'/usr/X11R6/lib/X11/fonts/TTF/VeraSeBd.ttf'
p1200
aS'/Library/Fonts/STIXSizOneSymReg.otf'
p1201
aS'/Library/Fonts/STIXIntUpSmReg.otf'
p1202
aS'/Library/Fonts/Andale Mono.ttf'
p1203
aS'/Library/Fonts/Khmer Sangam MN.ttf'
p1204
aS'/usr/X11R6/lib/X11/fonts/TTF/luximbi.ttf'
p1205
aS'/Library/Fonts/Microsoft Sans Serif.ttf'
p1206
aS'/Library/Fonts/STIXIntUpDBol.otf'
p1207
aS'/System/Library/Fonts/SFCompactText-Light.otf'
p1208
aS'/Library/Fonts/STIXGeneral.otf'
p1209
aS'/Library/Fonts/Courier New Italic.ttf'
p1210
aS'/Library/Fonts/Arial Black.ttf'
p1211
aS'/usr/X11/lib/X11/fonts/OTF/SyrCOMBatnan.otf'
p1212
aS'/System/Library/Fonts/SFCompactDisplay-Ultralight.otf'
p1213
aS'/System/Library/Fonts/SFCompactDisplay-Thin.otf'
p1214
aS'/Library/Fonts/STIXGeneralItalic.otf'
p1215
aS'/Library/Fonts/Silom.ttf'
p1216
aS'/usr/X11/lib/X11/fonts/TTF/luxirr.ttf'
p1217
aS'/System/Library/Fonts/SFNSDisplayCondensed-Medium.otf'
p1218
aS'/usr/X11R6/lib/X11/fonts/TTF/luxisri.ttf'
p1219
aS'/System/Library/Fonts/SFNSTextCondensed-Light.otf'
p1220
aS'/usr/X11R6/lib/X11/fonts/TTF/VeraBd.ttf'
p1221
aS'/Library/Fonts/STIXSizFourSymReg.otf'
p1222
aS'/Library/Fonts/Apple Chancery.ttf'
p1223
aS'/System/Library/Fonts/SFCompactText-LightItalic.otf'
p1224
aS'/usr/X11/lib/X11/fonts/TTF/Vera.ttf'
p1225
aS'/Library/Fonts/Wingdings 3.ttf'
p1226
aS'/Library/Fonts/Comic Sans MS Bold.ttf'
p1227
aS'/System/Library/Fonts/SFCompactDisplay-Heavy.otf'
p1228
aS'/Library/Fonts/STIXIntUpSmBol.otf'
p1229
aS'/Library/Fonts/Lao Sangam MN.ttf'
p1230
aS'/usr/X11R6/lib/X11/fonts/TTF/GohaTibebZemen.ttf'
p1231
aS'/Library/Fonts/Trattatello.ttf'
p1232
aS'/usr/X11R6/lib/X11/fonts/TTF/luxisb.ttf'
p1233
aS'/usr/X11R6/lib/X11/fonts/TTF/VeraSe.ttf'
p1234
aS'/Library/Fonts/STIXSizOneSymBol.otf'
p1235
aS'/Library/Fonts/Comic Sans MS.ttf'
p1236
aS'/Library/Fonts/STIXSizTwoSymReg.otf'
p1237
aS'/usr/X11/lib/X11/fonts/OTF/SyrCOMNisibinOutline.otf'
p1238
aS'/Library/Fonts/Bodoni Ornaments.ttf'
p1239
aS'/Library/Fonts/STIXSizFourSymBol.otf'
p1240
aS'/usr/X11R6/lib/X11/fonts/TTF/VeraMoBd.ttf'
p1241
aS'/Library/Fonts/Arial Bold.ttf'
p1242
aS'/Library/Fonts/Georgia Bold.ttf'
p1243
aS'/Library/Fonts/STIXIntDReg.otf'
p1244
aS'/usr/X11/lib/X11/fonts/OTF/SyrCOMJerusalemOutline.otf'
p1245
aS'/System/Library/Fonts/SFNSSymbols-Regular.otf'
p1246
aS'/usr/X11/lib/X11/fonts/OTF/SyrCOMJerusalemItalic.otf'
p1247
aS'/Library/Fonts/Wingdings.ttf'
p1248
aS'/Library/Fonts/Impact.ttf'
p1249
aS'/Library/Fonts/Tahoma Bold.ttf'
p1250
aS'/Library/Fonts/Georgia Bold Italic.ttf'
p1251
aS'/Library/Fonts/STIXIntUpDReg.otf'
p1252
aS'/Library/Fonts/Sathu.ttf'
p1253
aS'/usr/X11R6/lib/X11/fonts/TTF/luximri.ttf'
p1254
aS'/System/Library/Fonts/SFCompactRounded-Regular.otf'
p1255
aS'/usr/X11R6/lib/X11/fonts/TTF/VeraMoBI.ttf'
p1256
aS'/System/Library/Fonts/SFNSDisplay-ThinItalic.otf'
p1257
aS'/usr/X11/lib/X11/fonts/TTF/luximbi.ttf'
p1258
asS'_FontManager__default_weight'
p1259
g13
sS'_version'
p1260
I101
sS'ttf_lookup_cache'
p1261
(dp1262
sS'default_size'
p1263
NsS'defaultFont'
p1264
(dp1265
g980
S'/System/Library/Frameworks/Python.framework/Versions/2.7/Extras/lib/python/matplotlib/mpl-data/fonts/afm/phvl8a.afm'
p1266
sg982
g1012
ssS'afmfiles'
p1267
(lp1268
g1266
aS'/System/Library/Frameworks/Python.framework/Versions/2.7/Extras/lib/python/matplotlib/mpl-data/fonts/afm/putbi8a.afm'
p1269
aS'/System/Library/Frameworks/Python.framework/Versions/2.7/Extras/lib/python/matplotlib/mpl-data/fonts/afm/pcrb8a.afm'
p1270
aS'/System/Library/Frameworks/Python.framework/Versions/2.7/Extras/lib/python/matplotlib/mpl-data/fonts/afm/phvbo8a.afm'
p1271
aS'/System/Library/Frameworks/Python.framework/Versions/2.7/Extras/lib/python/matplotlib/mpl-data/fonts/afm/phvb8an.afm'
p1272
aS'/System/Library/Frameworks/Python.framework/Versions/2.7/Extras/lib/python/matplotlib/mpl-data/fonts/pdfcorefonts/Symbol.afm'
p1273
aS'/System/Library/Frameworks/Python.framework/Versions/2.7/Extras/lib/python/matplotlib/mpl-data/fonts/afm/phvbo8an.afm'
p1274
aS'/System/Library/Frameworks/Python.framework/Versions/2.7/Extras/lib/python/matplotlib/mpl-data/fonts/pdfcorefonts/Times-Roman.afm'
p1275
aS'/System/Library/Frameworks/Python.framework/Versions/2.7/Extras/lib/python/matplotlib/mpl-data/fonts/afm/pncr8a.afm'
p1276
aS'/System/Library/Frameworks/Python.framework/Versions/2.7/Extras/lib/python/matplotlib/mpl-data/fonts/afm/phvlo8a.afm'
p1277
aS'/System/Library/Frameworks/Python.framework/Versions/2.7/Extras/lib/python/matplotlib/mpl-data/fonts/pdfcorefonts/Times-Italic.afm'
p1278
aS'/System/Library/Frameworks/Python.framework/Versions/2.7/Extras/lib/python/matplotlib/mpl-data/fonts/pdfcorefonts/Helvetica.afm'
p1279
aS'/System/Library/Frameworks/Python.framework/Versions/2.7/Extras/lib/python/matplotlib/mpl-data/fonts/afm/phvr8an.afm'
p1280
aS'/System/Library/Frameworks/Python.framework/Versions/2.7/Extras/lib/python/matplotlib/mpl-data/fonts/pdfcorefonts/Courier-Bold.afm'
p1281
aS'/System/Library/Frameworks/Python.framework/Versions/2.7/Extras/lib/python/matplotlib/mpl-data/fonts/pdfcorefonts/Helvetica-Bold.afm'
p1282
aS'/System/Library/Frameworks/Python.framework/Versions/2.7/Extras/lib/python/matplotlib/mpl-data/fonts/afm/ptmb8a.afm'
p1283
aS'/System/Library/Frameworks/Python.framework/Versions/2.7/Extras/lib/python/matplotlib/mpl-data/fonts/afm/pagd8a.afm'
p1284
aS'/System/Library/Frameworks/Python.framework/Versions/2.7/Extras/lib/python/matplotlib/mpl-data/fonts/pdfcorefonts/ZapfDingbats.afm'
p1285
aS'/System/Library/Frameworks/Python.framework/Versions/2.7/Extras/lib/python/matplotlib/mpl-data/fonts/afm/putr8a.afm'
p1286
aS'/System/Library/Frameworks/Python.framework/Versions/2.7/Extras/lib/python/matplotlib/mpl-data/fonts/afm/cmtt10.afm'
p1287
aS'/System/Library/Frameworks/Python.framework/Versions/2.7/Extras/lib/python/matplotlib/mpl-data/fonts/afm/pagko8a.afm'
p1288
aS'/System/Library/Frameworks/Python.framework/Versions/2.7/Extras/lib/python/matplotlib/mpl-data/fonts/afm/ptmr8a.afm'
p1289
aS'/System/Library/Frameworks/Python.framework/Versions/2.7/Extras/lib/python/matplotlib/mpl-data/fonts/pdfcorefonts/Helvetica-Oblique.afm'
p1290
aS'/System/Library/Frameworks/Python.framework/Versions/2.7/Extras/lib/python/matplotlib/mpl-data/fonts/afm/cmr10.afm'
p1291
aS'/System/Library/Frameworks/Python.framework/Versions/2.7/Extras/lib/python/matplotlib/mpl-data/fonts/pdfcorefonts/Courier-Oblique.afm'
p1292
aS'/System/Library/Frameworks/Python.framework/Versions/2.7/Extras/lib/python/matplotlib/mpl-data/fonts/afm/pcrro8a.afm'
p1293
aS'/System/Library/Frameworks/Python.framework/Versions/2.7/Extras/lib/python/matplotlib/mpl-data/fonts/afm/pcrbo8a.afm'
p1294
aS'/System/Library/Frameworks/Python.framework/Versions/2.7/Extras/lib/python/matplotlib/mpl-data/fonts/pdfcorefonts/Courier.afm'
p1295
aS'/System/Library/Frameworks/Python.framework/Versions/2.7/Extras/lib/python/matplotlib/mpl-data/fonts/afm/ptmbi8a.afm'
p1296
aS'/System/Library/Frameworks/Python.framework/Versions/2.7/Extras/lib/python/matplotlib/mpl-data/fonts/afm/pagdo8a.afm'
p1297
aS'/System/Library/Frameworks/Python.framework/Versions/2.7/Extras/lib/python/matplotlib/mpl-data/fonts/pdfcorefonts/Times-BoldItalic.afm'
p1298
aS'/System/Library/Frameworks/Python.framework/Versions/2.7/Extras/lib/python/matplotlib/mpl-data/fonts/pdfcorefonts/Helvetica-BoldOblique.afm'
p1299
aS'/System/Library/Frameworks/Python.framework/Versions/2.7/Extras/lib/python/matplotlib/mpl-data/fonts/afm/pbkd8a.afm'
p1300
aS'/System/Library/Frameworks/Python.framework/Versions/2.7/Extras/lib/python/matplotlib/mpl-data/fonts/afm/pplr8a.afm'
p1301
aS'/System/Library/Frameworks/Python.framework/Versions/2.7/Extras/lib/python/matplotlib/mpl-data/fonts/afm/pbkdi8a.afm'
p1302
aS'/System/Library/Frameworks/Python.framework/Versions/2.7/Extras/lib/python/matplotlib/mpl-data/fonts/afm/pagk8a.afm'
p1303
aS'/System/Library/Frameworks/Python.framework/Versions/2.7/Extras/lib/python/matplotlib/mpl-data/fonts/afm/putri8a.afm'
p1304
aS'/System/Library/Frameworks/Python.framework/Versions/2.7/Extras/lib/python/matplotlib/mpl-data/fonts/afm/phvr8a.afm'
p1305
aS'/System/Library/Frameworks/Python.framework/Versions/2.7/Extras/lib/python/matplotlib/mpl-data/fonts/afm/pbkl8a.afm'
p1306
aS'/System/Library/Frameworks/Python.framework/Versions/2.7/Extras/lib/python/matplotlib/mpl-data/fonts/afm/phvro8a.afm'
p1307
aS'/System/Library/Frameworks/Python.framework/Versions/2.7/Extras/lib/python/matplotlib/mpl-data/fonts/afm/psyr.afm'
p1308
aS'/System/Library/Frameworks/Python.framework/Versions/2.7/Extras/lib/python/matplotlib/mpl-data/fonts/pdfcorefonts/Times-Bold.afm'
p1309
aS'/System/Library/Frameworks/Python.framework/Versions/2.7/Extras/lib/python/matplotlib/mpl-data/fonts/afm/pplri8a.afm'
p1310
aS'/System/Library/Frameworks/Python.framework/Versions/2.7/Extras/lib/python/matplotlib/mpl-data/fonts/afm/pncb8a.afm'
p1311
aS'/System/Library/Frameworks/Python.framework/Versions/2.7/Extras/lib/python/matplotlib/mpl-data/fonts/afm/putb8a.afm'
p1312
aS'/System/Library/Frameworks/Python.framework/Versions/2.7/Extras/lib/python/matplotlib/mpl-data/fonts/afm/pncbi8a.afm'
p1313
aS'/System/Library/Frameworks/Python.framework/Versions/2.7/Extras/lib/python/matplotlib/mpl-data/fonts/afm/phvb8a.afm'
p1314
aS'/System/Library/Frameworks/Python.framework/Versions/2.7/Extras/lib/python/matplotlib/mpl-data/fonts/afm/pbkli8a.afm'
p1315
aS'/System/Library/Frameworks/Python.framework/Versions/2.7/Extras/lib/python/matplotlib/mpl-data/fonts/afm/pcrr8a.afm'
p1316
aS'/System/Library/Frameworks/Python.framework/Versions/2.7/Extras/lib/python/matplotlib/mpl-data/fonts/afm/pzdr.afm'
p1317
aS'/System/Library/Frameworks/Python.framework/Versions/2.7/Extras/lib/python/matplotlib/mpl-data/fonts/afm/cmsy10.afm'
p1318
aS'/System/Library/Frameworks/Python.framework/Versions/2.7/Extras/lib/python/matplotlib/mpl-data/fonts/afm/cmmi10.afm'
p1319
aS'/System/Library/Frameworks/Python.framework/Versions/2.7/Extras/lib/python/matplotlib/mpl-data/fonts/afm/pplbi8a.afm'
p1320
aS'/System/Library/Frameworks/Python.framework/Versions/2.7/Extras/lib/python/matplotlib/mpl-data/fonts/afm/cmex10.afm'
p1321
aS'/System/Library/Frameworks/Python.framework/Versions/2.7/Extras/lib/python/matplotlib/mpl-data/fonts/afm/pncri8a.afm'
p1322
aS'/System/Library/Frameworks/Python.framework/Versions/2.7/Extras/lib/python/matplotlib/mpl-data/fonts/afm/ptmri8a.afm'
p1323
aS'/System/Library/Frameworks/Python.framework/Versions/2.7/Extras/lib/python/matplotlib/mpl-data/fonts/afm/pzcmi8a.afm'
p1324
aS'/System/Library/Frameworks/Python.framework/Versions/2.7/Extras/lib/python/matplotlib/mpl-data/fonts/pdfcorefonts/Courier-BoldOblique.afm'
p1325
aS'/System/Library/Frameworks/Python.framework/Versions/2.7/Extras/lib/python/matplotlib/mpl-data/fonts/afm/phvro8an.afm'
p1326
aS'/System/Library/Frameworks/Python.framework/Versions/2.7/Extras/lib/python/matplotlib/mpl-data/fonts/afm/pplb8a.afm'
p1327
aS'/usr/X11/lib/X11/fonts/Type1/UTB_____.afm'
p1328
aS'/usr/X11/lib/X11/fonts/Type1/c0583bt_.afm'
p1329
aS'/usr/X11/lib/X11/fonts/Type1/l049036t.afm'
p1330
aS'/usr/X11/lib/X11/fonts/Type1/c0649bt_.afm'
p1331
aS'/usr/X11/lib/X11/fonts/Type1/UTRG____.afm'
p1332
aS'/usr/X11/lib/X11/fonts/Type1/c0582bt_.afm'
p1333
aS'/usr/X11/lib/X11/fonts/Type1/c0648bt_.afm'
p1334
aS'/usr/X11/lib/X11/fonts/Type1/c0633bt_.afm'
p1335
aS'/usr/X11/lib/X11/fonts/Type1/l048013t.afm'
p1336
aS'/usr/X11/lib/X11/fonts/Type1/courb.afm'
p1337
aS'/usr/X11/lib/X11/fonts/Type1/c0419bt_.afm'
p1338
aS'/usr/X11/lib/X11/fonts/Type1/UTI_____.afm'
p1339
aS'/usr/X11/lib/X11/fonts/Type1/l049016t.afm'
p1340
aS'/usr/X11/lib/X11/fonts/Type1/l048033t.afm'
p1341
aS'/usr/X11/lib/X11/fonts/Type1/l048016t.afm'
p1342
aS'/usr/X11/lib/X11/fonts/Type1/l048036t.afm'
p1343
aS'/usr/X11/lib/X11/fonts/Type1/courbi.afm'
p1344
aS'/usr/X11/lib/X11/fonts/Type1/c0632bt_.afm'
p1345
aS'/usr/X11/lib/X11/fonts/Type1/l049013t.afm'
p1346
aS'/usr/X11/lib/X11/fonts/Type1/c0611bt_.afm'
p1347
aS'/usr/X11/lib/X11/fonts/Type1/l047036t.afm'
p1348
aS'/usr/X11/lib/X11/fonts/Type1/l047016t.afm'
p1349
aS'/usr/X11/lib/X11/fonts/Type1/l047033t.afm'
p1350
aS'/usr/X11/lib/X11/fonts/Type1/l047013t.afm'
p1351
aS'/usr/X11/lib/X11/fonts/Type1/l049033t.afm'
p1352
aS'/usr/X11/lib/X11/fonts/Type1/UTBI____.afm'
p1353
aS'/usr/X11/lib/X11/fonts/Type1/cour.afm'
p1354
aS'/usr/X11/lib/X11/fonts/Type1/couri.afm'
p1355
asS'afmlist'
p1356
(lp1357
g7
(g8
g9
NtRp1358
(dp1359
g12
g13
sg14
S'Helvetica'
p1360
sg16
I200
sg17
g13
sg18
g13
sg19
g1266
sg21
g22
sbag7
(g8
g9
NtRp1361
(dp1362
g12
g74
sg14
S'Utopia'
p1363
sg16
I700
sg17
g13
sg18
g13
sg19
g1269
sg21
g22
sbag7
(g8
g9
NtRp1364
(dp1365
g12
g13
sg14
S'Courier'
p1366
sg16
I700
sg17
g13
sg18
g13
sg19
g1270
sg21
g22
sbag7
(g8
g9
NtRp1367
(dp1368
g12
g74
sg14
S'Helvetica'
p1369
sg16
I700
sg17
g13
sg18
g13
sg19
g1271
sg21
g22
sbag7
(g8
g9
NtRp1370
(dp1371
g12
g13
sg14
S'Helvetica'
p1372
sg16
I700
sg17
g208
sg18
g13
sg19
g1272
sg21
g22
sbag7
(g8
g9
NtRp1373
(dp1374
g12
g13
sg14
S'Symbol'
p1375
sg16
I500
sg17
g13
sg18
g13
sg19
g1273
sg21
g22
sbag7
(g8
g9
NtRp1376
(dp1377
g12
g74
sg14
S'Helvetica'
p1378
sg16
I700
sg17
g208
sg18
g13
sg19
g1274
sg21
g22
sbag7
(g8
g9
NtRp1379
(dp1380
g12
g13
sg14
S'Times'
p1381
sg16
I500
sg17
g13
sg18
g13
sg19
g1275
sg21
g22
sbag7
(g8
g9
NtRp1382
(dp1383
g12
g13
sg14
S'New Century Schoolbook'
p1384
sg16
I500
sg17
g13
sg18
g13
sg19
g1276
sg21
g22
sbag7
(g8
g9
NtRp1385
(dp1386
g12
g74
sg14
S'Helvetica'
p1387
sg16
I200
sg17
g13
sg18
g13
sg19
g1277
sg21
g22
sbag7
(g8
g9
NtRp1388
(dp1389
g12
g74
sg14
S'Times'
p1390
sg16
I500
sg17
g13
sg18
g13
sg19
g1278
sg21
g22
sbag7
(g8
g9
NtRp1391
(dp1392
g12
g13
sg14
S'Helvetica'
p1393
sg16
I500
sg17
g13
sg18
g13
sg19
g1279
sg21
g22
sbag7
(g8
g9
NtRp1394
(dp1395
g12
g13
sg14
S'Helvetica'
p1396
sg16
I500
sg17
g208
sg18
g13
sg19
g1280
sg21
g22
sbag7
(g8
g9
NtRp1397
(dp1398
g12
g13
sg14
S'Courier'
p1399
sg16
I700
sg17
g13
sg18
g13
sg19
g1281
sg21
g22
sbag7
(g8
g9
NtRp1400
(dp1401
g12
g13
sg14
S'Helvetica'
p1402
sg16
I700
sg17
g13
sg18
g13
sg19
g1282
sg21
g22
sbag7
(g8
g9
NtRp1403
(dp1404
g12
g13
sg14
S'Times'
p1405
sg16
I700
sg17
g13
sg18
g13
sg19
g1283
sg21
g22
sbag7
(g8
g9
NtRp1406
(dp1407
g12
g13
sg14
S'ITC Avant Garde Gothic'
p1408
sg16
I600
sg17
g13
sg18
g13
sg19
g1284
sg21
g22
sbag7
(g8
g9
NtRp1409
(dp1410
g12
g13
sg14
S'ZapfDingbats'
p1411
sg16
I500
sg17
g13
sg18
g13
sg19
g1285
sg21
g22
sbag7
(g8
g9
NtRp1412
(dp1413
g12
g13
sg14
S'Utopia'
p1414
sg16
I400
sg17
g13
sg18
g13
sg19
g1286
sg21
g22
sbag7
(g8
g9
NtRp1415
(dp1416
g12
g13
sg14
S'Computer Modern'
p1417
sg16
I500
sg17
g13
sg18
g13
sg19
g1287
sg21
g22
sbag7
(g8
g9
NtRp1418
(dp1419
g12
g74
sg14
S'ITC Avant Garde Gothic'
p1420
sg16
I400
sg17
g13
sg18
g13
sg19
g1288
sg21
g22
sbag7
(g8
g9
NtRp1421
(dp1422
g12
g13
sg14
S'Times'
p1423
sg16
I500
sg17
g13
sg18
g13
sg19
g1289
sg21
g22
sbag7
(g8
g9
NtRp1424
(dp1425
g12
g74
sg14
S'Helvetica'
p1426
sg16
I500
sg17
g13
sg18
g13
sg19
g1290
sg21
g22
sbag7
(g8
g9
NtRp1427
(dp1428
g12
g13
sg14
S'Computer Modern'
p1429
sg16
I500
sg17
g13
sg18
g13
sg19
g1291
sg21
g22
sbag7
(g8
g9
NtRp1430
(dp1431
g12
g74
sg14
S'Courier'
p1432
sg16
I500
sg17
g13
sg18
g13
sg19
g1292
sg21
g22
sbag7
(g8
g9
NtRp1433
(dp1434
g12
g74
sg14
S'Courier'
p1435
sg16
I500
sg17
g13
sg18
g13
sg19
g1293
sg21
g22
sbag7
(g8
g9
NtRp1436
(dp1437
g12
g74
sg14
S'Courier'
p1438
sg16
I700
sg17
g13
sg18
g13
sg19
g1294
sg21
g22
sbag7
(g8
g9
NtRp1439
(dp1440
g12
g13
sg14
S'Courier'
p1441
sg16
I500
sg17
g13
sg18
g13
sg19
g1295
sg21
g22
sbag7
(g8
g9
NtRp1442
(dp1443
g12
g74
sg14
S'Times'
p1444
sg16
I700
sg17
g13
sg18
g13
sg19
g1296
sg21
g22
sbag7
(g8
g9
NtRp1445
(dp1446
g12
g74
sg14
S'ITC Avant Garde Gothic'
p1447
sg16
I600
sg17
g13
sg18
g13
sg19
g1297
sg21
g22
sbag7
(g8
g9
NtRp1448
(dp1449
g12
g74
sg14
S'Times'
p1450
sg16
I700
sg17
g13
sg18
g13
sg19
g1298
sg21
g22
sbag7
(g8
g9
NtRp1451
(dp1452
g12
g74
sg14
S'Helvetica'
p1453
sg16
I700
sg17
g13
sg18
g13
sg19
g1299
sg21
g22
sbag7
(g8
g9
NtRp1454
(dp1455
g12
g13
sg14
S'ITC Bookman'
p1456
sg16
I600
sg17
g13
sg18
g13
sg19
g1300
sg21
g22
sbag7
(g8
g9
NtRp1457
(dp1458
g12
g13
sg14
S'Palatino'
p1459
sg16
I500
sg17
g13
sg18
g13
sg19
g1301
sg21
g22
sbag7
(g8
g9
NtRp1460
(dp1461
g12
g74
sg14
S'ITC Bookman'
p1462
sg16
I600
sg17
g13
sg18
g13
sg19
g1302
sg21
g22
sbag7
(g8
g9
NtRp1463
(dp1464
g12
g13
sg14
S'ITC Avant Garde Gothic'
p1465
sg16
I400
sg17
g13
sg18
g13
sg19
g1303
sg21
g22
sbag7
(g8
g9
NtRp1466
(dp1467
g12
g74
sg14
S'Utopia'
p1468
sg16
I400
sg17
g13
sg18
g13
sg19
g1304
sg21
g22
sbag7
(g8
g9
NtRp1469
(dp1470
g12
g13
sg14
S'Helvetica'
p1471
sg16
I500
sg17
g13
sg18
g13
sg19
g1305
sg21
g22
sbag7
(g8
g9
NtRp1472
(dp1473
g12
g13
sg14
S'ITC Bookman'
p1474
sg16
I200
sg17
g13
sg18
g13
sg19
g1306
sg21
g22
sbag7
(g8
g9
NtRp1475
(dp1476
g12
g74
sg14
S'Helvetica'
p1477
sg16
I500
sg17
g13
sg18
g13
sg19
g1307
sg21
g22
sbag7
(g8
g9
NtRp1478
(dp1479
g12
g13
sg14
S'Symbol'
p1480
sg16
I500
sg17
g13
sg18
g13
sg19
g1308
sg21
g22
sbag7
(g8
g9
NtRp1481
(dp1482
g12
g13
sg14
S'Times'
p1483
sg16
I700
sg17
g13
sg18
g13
sg19
g1309
sg21
g22
sbag7
(g8
g9
NtRp1484
(dp1485
g12
g74
sg14
S'Palatino'
p1486
sg16
I500
sg17
g13
sg18
g13
sg19
g1310
sg21
g22
sbag7
(g8
g9
NtRp1487
(dp1488
g12
g13
sg14
S'New Century Schoolbook'
p1489
sg16
I700
sg17
g13
sg18
g13
sg19
g1311
sg21
g22
sbag7
(g8
g9
NtRp1490
(dp1491
g12
g13
sg14
S'Utopia'
p1492
sg16
I700
sg17
g13
sg18
g13
sg19
g1312
sg21
g22
sbag7
(g8
g9
NtRp1493
(dp1494
g12
g74
sg14
S'New Century Schoolbook'
p1495
sg16
I700
sg17
g13
sg18
g13
sg19
g1313
sg21
g22
sbag7
(g8
g9
NtRp1496
(dp1497
g12
g13
sg14
S'Helvetica'
p1498
sg16
I700
sg17
g13
sg18
g13
sg19
g1314
sg21
g22
sbag7
(g8
g9
NtRp1499
(dp1500
g12
g74
sg14
S'ITC Bookman'
p1501
sg16
I200
sg17
g13
sg18
g13
sg19
g1315
sg21
g22
sbag7
(g8
g9
NtRp1502
(dp1503
g12
g13
sg14
S'Courier'
p1504
sg16
I500
sg17
g13
sg18
g13
sg19
g1316
sg21
g22
sbag7
(g8
g9
NtRp1505
(dp1506
g12
g13
sg14
S'ITC Zapf Dingbats'
p1507
sg16
I500
sg17
g13
sg18
g13
sg19
g1317
sg21
g22
sbag7
(g8
g9
NtRp1508
(dp1509
g12
g74
sg14
S'Computer Modern'
p1510
sg16
I500
sg17
g13
sg18
g13
sg19
g1318
sg21
g22
sbag7
(g8
g9
NtRp1511
(dp1512
g12
g74
sg14
S'Computer Modern'
p1513
sg16
I500
sg17
g13
sg18
g13
sg19
g1319
sg21
g22
sbag7
(g8
g9
NtRp1514
(dp1515
g12
g74
sg14
S'Palatino'
p1516
sg16
I700
sg17
g13
sg18
g13
sg19
g1320
sg21
g22
sbag7
(g8
g9
NtRp1517
(dp1518
g12
g13
sg14
S'Computer Modern'
p1519
sg16
I500
sg17
g13
sg18
g13
sg19
g1321
sg21
g22
sbag7
(g8
g9
NtRp1520
(dp1521
g12
g74
sg14
S'New Century Schoolbook'
p1522
sg16
I500
sg17
g13
sg18
g13
sg19
g1322
sg21
g22
sbag7
(g8
g9
NtRp1523
(dp1524
g12
g74
sg14
S'Times'
p1525
sg16
I500
sg17
g13
sg18
g13
sg19
g1323
sg21
g22
sbag7
(g8
g9
NtRp1526
(dp1527
g12
g74
sg14
S'ITC Zapf Chancery'
p1528
sg16
I500
sg17
g13
sg18
g13
sg19
g1324
sg21
g22
sbag7
(g8
g9
NtRp1529
(dp1530
g12
g74
sg14
S'Courier'
p1531
sg16
I700
sg17
g13
sg18
g13
sg19
g1325
sg21
g22
sbag7
(g8
g9
NtRp1532
(dp1533
g12
g74
sg14
S'Helvetica'
p1534
sg16
I500
sg17
g208
sg18
g13
sg19
g1326
sg21
g22
sbag7
(g8
g9
NtRp1535
(dp1536
g12
g13
sg14
S'Palatino'
p1537
sg16
I700
sg17
g13
sg18
g13
sg19
g1327
sg21
g22
sbag7
(g8
g9
NtRp1538
(dp1539
g12
g13
sg14
S'Utopia'
p1540
sg16
I700
sg17
g13
sg18
g13
sg19
g1328
sg21
g22
sbag7
(g8
g9
NtRp1541
(dp1542
g12
g13
sg14
S'Courier 10 Pitch'
p1543
sg16
I700
sg17
g13
sg18
g13
sg19
g1329
sg21
g22
sbag7
(g8
g9
NtRp1544
(dp1545
g12
g74
sg14
S'Luxi Serif'
p1546
sg16
I700
sg17
g13
sg18
g13
sg19
g1330
sg21
g22
sbag7
(g8
g9
NtRp1547
(dp1548
g12
g74
sg14
S'Bitstream Charter'
p1549
sg16
I400
sg17
g13
sg18
g13
sg19
g1331
sg21
g22
sbag7
(g8
g9
NtRp1550
(dp1551
g12
g13
sg14
S'Utopia'
p1552
sg16
I400
sg17
g13
sg18
g13
sg19
g1332
sg21
g22
sbag7
(g8
g9
NtRp1553
(dp1554
g12
g74
sg14
S'Courier 10 Pitch'
p1555
sg16
I400
sg17
g13
sg18
g13
sg19
g1333
sg21
g22
sbag7
(g8
g9
NtRp1556
(dp1557
g12
g13
sg14
S'Bitstream Charter'
p1558
sg16
I400
sg17
g13
sg18
g13
sg19
g1334
sg21
g22
sbag7
(g8
g9
NtRp1559
(dp1560
g12
g74
sg14
S'Bitstream Charter'
p1561
sg16
I700
sg17
g13
sg18
g13
sg19
g1335
sg21
g22
sbag7
(g8
g9
NtRp1562
(dp1563
g12
g13
sg14
S'Luxi Sans'
p1564
sg16
I400
sg17
g13
sg18
g13
sg19
g1336
sg21
g22
sbag7
(g8
g9
NtRp1565
(dp1566
g12
g13
sg14
S'Courier'
p1567
sg16
I700
sg17
g13
sg18
g13
sg19
g1337
sg21
g22
sbag7
(g8
g9
NtRp1568
(dp1569
g12
g13
sg14
S'Courier 10 Pitch'
p1570
sg16
I400
sg17
g13
sg18
g13
sg19
g1338
sg21
g22
sbag7
(g8
g9
NtRp1571
(dp1572
g12
g74
sg14
S'Utopia'
p1573
sg16
I400
sg17
g13
sg18
g13
sg19
g1339
sg21
g22
sbag7
(g8
g9
NtRp1574
(dp1575
g12
g13
sg14
S'Luxi Serif'
p1576
sg16
I700
sg17
g13
sg18
g13
sg19
g1340
sg21
g22
sbag7
(g8
g9
NtRp1577
(dp1578
g12
g74
sg14
S'Luxi Sans'
p1579
sg16
I400
sg17
g13
sg18
g13
sg19
g1341
sg21
g22
sbag7
(g8
g9
NtRp1580
(dp1581
g12
g13
sg14
S'Luxi Sans'
p1582
sg16
I700
sg17
g13
sg18
g13
sg19
g1342
sg21
g22
sbag7
(g8
g9
NtRp1583
(dp1584
g12
g74
sg14
S'Luxi Sans'
p1585
sg16
I700
sg17
g13
sg18
g13
sg19
g1343
sg21
g22
sbag7
(g8
g9
NtRp1586
(dp1587
g12
g74
sg14
S'Courier'
p1588
sg16
I700
sg17
g13
sg18
g13
sg19
g1344
sg21
g22
sbag7
(g8
g9
NtRp1589
(dp1590
g12
g13
sg14
S'Bitstream Charter'
p1591
sg16
I700
sg17
g13
sg18
g13
sg19
g1345
sg21
g22
sbag7
(g8
g9
NtRp1592
(dp1593
g12
g13
sg14
S'Luxi Serif'
p1594
sg16
I400
sg17
g13
sg18
g13
sg19
g1346
sg21
g22
sbag7
(g8
g9
NtRp1595
(dp1596
g12
g74
sg14
S'Courier 10 Pitch'
p1597
sg16
I700
sg17
g13
sg18
g13
sg19
g1347
sg21
g22
sbag7
(g8
g9
NtRp1598
(dp1599
g12
g74
sg14
S'Luxi Mono'
p1600
sg16
I700
sg17
g13
sg18
g13
sg19
g1348
sg21
g22
sbag7
(g8
g9
NtRp1601
(dp1602
g12
g13
sg14
S'Luxi Mono'
p1603
sg16
I700
sg17
g13
sg18
g13
sg19
g1349
sg21
g22
sbag7
(g8
g9
NtRp1604
(dp1605
g12
g74
sg14
S'Luxi Mono'
p1606
sg16
I400
sg17
g13
sg18
g13
sg19
g1350
sg21
g22
sbag7
(g8
g9
NtRp1607
(dp1608
g12
g13
sg14
S'Luxi Mono'
p1609
sg16
I400
sg17
g13
sg18
g13
sg19
g1351
sg21
g22
sbag7
(g8
g9
NtRp1610
(dp1611
g12
g74
sg14
S'Luxi Serif'
p1612
sg16
I400
sg17
g13
sg18
g13
sg19
g1352
sg21
g22
sbag7
(g8
g9
NtRp1613
(dp1614
g12
g74
sg14
S'Utopia'
p1615
sg16
I700
sg17
g13
sg18
g13
sg19
g1353
sg21
g22
sbag7
(g8
g9
NtRp1616
(dp1617
g12
g13
sg14
S'Courier'
p1618
sg16
I400
sg17
g13
sg18
g13
sg19
g1354
sg21
g22
sbag7
(g8
g9
NtRp1619
(dp1620
g12
g74
sg14
S'Courier'
p1621
sg16
I400
sg17
g13
sg18
g13
sg19
g1355
sg21
g22
sbasb.